---
triple:          'arm64-apple-darwin'
binary-path:     t2B_timed
relocations:
  - { offsetInCU: 0x3F, offset: 0x3F, size: 0x8, addend: 0x0, symName: ____N, symObjAddr: 0xC1E0, symBinAddr: 0x100014000, symSize: 0x0 }
  - { offsetInCU: 0x5B, offset: 0x5B, size: 0x8, addend: 0x0, symName: _TIME_TRIALS, symObjAddr: 0xC1E4, symBinAddr: 0x100014004, symSize: 0x0 }
  - { offsetInCU: 0x70, offset: 0x70, size: 0x8, addend: 0x0, symName: _Verbose, symObjAddr: 0x5EB48, symBinAddr: 0x100014028, symSize: 0x0 }
  - { offsetInCU: 0x8C, offset: 0x8C, size: 0x8, addend: 0x0, symName: _TestNum, symObjAddr: 0xC1E8, symBinAddr: 0x100014008, symSize: 0x0 }
  - { offsetInCU: 0xA1, offset: 0xA1, size: 0x8, addend: 0x0, symName: _NPassed, symObjAddr: 0x5EB4C, symBinAddr: 0x10001402C, symSize: 0x0 }
  - { offsetInCU: 0xB6, offset: 0xB6, size: 0x8, addend: 0x0, symName: _NFailed, symObjAddr: 0x5EB50, symBinAddr: 0x100014030, symSize: 0x0 }
  - { offsetInCU: 0xCB, offset: 0xCB, size: 0x8, addend: 0x0, symName: _Score, symObjAddr: 0x5EB54, symBinAddr: 0x100014034, symSize: 0x0 }
  - { offsetInCU: 0xE7, offset: 0xE7, size: 0x8, addend: 0x0, symName: _MaxPts, symObjAddr: 0x5EB58, symBinAddr: 0x100014038, symSize: 0x0 }
  - { offsetInCU: 0xFC, offset: 0xFC, size: 0x8, addend: 0x0, symName: _ThisScore, symObjAddr: 0x5EB5C, symBinAddr: 0x10001403C, symSize: 0x0 }
  - { offsetInCU: 0x111, offset: 0x111, size: 0x8, addend: 0x0, symName: _ThisMaxPts, symObjAddr: 0x5EB60, symBinAddr: 0x100014040, symSize: 0x0 }
  - { offsetInCU: 0x126, offset: 0x126, size: 0x8, addend: 0x0, symName: _MaxPtsAuto, symObjAddr: 0x5EB64, symBinAddr: 0x100014044, symSize: 0x0 }
  - { offsetInCU: 0x13B, offset: 0x13B, size: 0x8, addend: 0x0, symName: _MaxPtsManual, symObjAddr: 0x5EB68, symBinAddr: 0x100014048, symSize: 0x0 }
  - { offsetInCU: 0x150, offset: 0x150, size: 0x8, addend: 0x0, symName: _PtsPer, symObjAddr: 0xC1EC, symBinAddr: 0x10001400C, symSize: 0x0 }
  - { offsetInCU: 0x165, offset: 0x165, size: 0x8, addend: 0x0, symName: _CurrFunc, symObjAddr: 0x5EB70, symBinAddr: 0x100014050, symSize: 0x0 }
  - { offsetInCU: 0x186, offset: 0x186, size: 0x8, addend: 0x0, symName: _CurrDesc, symObjAddr: 0x5EB78, symBinAddr: 0x100014058, symSize: 0x0 }
  - { offsetInCU: 0x977E, offset: 0x977E, size: 0x8, addend: 0x0, symName: __ZNSt3__124__put_character_sequenceB7v160006IcNS_11char_traitsIcEEEERNS_13basic_ostreamIT_T0_EES7_PKS4_m, symObjAddr: 0xAB9C, symBinAddr: 0x10000D45C, symSize: 0x1EC }
  - { offsetInCU: 0xA7D4, offset: 0xA7D4, size: 0x8, addend: 0x0, symName: __ZNSt3__16chronomiB7v160006IxNS_5ratioILl1ELl1000000000EEExS3_EENS_11common_typeIJNS0_8durationIT_T0_EENS5_IT1_T2_EEEE4typeERKS8_RKSB_, symObjAddr: 0xBCA0, symBinAddr: 0x10000E560, symSize: 0x70 }
  - { offsetInCU: 0xA935, offset: 0xA935, size: 0x8, addend: 0x0, symName: __ZNSt3__16chronomiB7v160006INS0_12steady_clockENS0_8durationIxNS_5ratioILl1ELl1000000000EEEEES6_EENS_11common_typeIJT0_T1_EE4typeERKNS0_10time_pointIT_S8_EERKNSC_ISD_S9_EE, symObjAddr: 0x2B74, symBinAddr: 0x100005434, symSize: 0x58 }
  - { offsetInCU: 0xBC91, offset: 0xBC91, size: 0x8, addend: 0x0, symName: __ZNSt3__1lsB7v160006IcNS_11char_traitsIcEENS_9allocatorIcEEEERNS_13basic_ostreamIT_T0_EES9_RKNS_12basic_stringIS6_S7_T1_EE, symObjAddr: 0x7A0, symBinAddr: 0x100003060, symSize: 0x4C }
  - { offsetInCU: 0xBCE9, offset: 0xBCE9, size: 0x8, addend: 0x0, symName: __ZNSt3__1lsB7v160006INS_11char_traitsIcEEEERNS_13basic_ostreamIcT_EES6_PKc, symObjAddr: 0x7EC, symBinAddr: 0x1000030AC, symSize: 0x48 }
  - { offsetInCU: 0xBD2F, offset: 0xBD2F, size: 0x8, addend: 0x0, symName: __ZNSt3__14endlB7v160006IcNS_11char_traitsIcEEEERNS_13basic_ostreamIT_T0_EES7_, symObjAddr: 0x860, symBinAddr: 0x100003120, symSize: 0x58 }
  - { offsetInCU: 0xBD6F, offset: 0xBD6F, size: 0x8, addend: 0x0, symName: __ZNSt3__1neB7v160006IiNS_9allocatorIiEEEEbRKNS_6vectorIT_T0_EES8_, symObjAddr: 0x235C, symBinAddr: 0x100004C1C, symSize: 0x34 }
  - { offsetInCU: 0xBDBE, offset: 0xBDBE, size: 0x8, addend: 0x0, symName: __ZNSt3__119__debug_db_insert_cB7v160006INS_6vectorIP4NodeNS_9allocatorIS3_EEEEEEvPT_, symObjAddr: 0x309C, symBinAddr: 0x10000595C, symSize: 0x10 }
  - { offsetInCU: 0xBDEF, offset: 0xBDEF, size: 0x8, addend: 0x0, symName: __ZNSt3__119__debug_db_insert_cB7v160006INS_6vectorINS1_I10LinkedListNS_9allocatorIS2_EEEENS3_IS5_EEEEEEvPT_, symObjAddr: 0x3208, symBinAddr: 0x100005AC8, symSize: 0x10 }
  - { offsetInCU: 0xBE20, offset: 0xBE20, size: 0x8, addend: 0x0, symName: __ZNSt3__112__to_addressB7v160006IP4NodeEEPT_S4_, symObjAddr: 0x393C, symBinAddr: 0x1000061FC, symSize: 0x14 }
  - { offsetInCU: 0xBE55, offset: 0xBE55, size: 0x8, addend: 0x0, symName: __ZNSt3__13maxB7v160006ImEERKT_S3_S3_, symObjAddr: 0x3AFC, symBinAddr: 0x1000063BC, symSize: 0x2C }
  - { offsetInCU: 0xBE98, offset: 0xBE98, size: 0x8, addend: 0x0, symName: __ZNSt3__13minB7v160006ImEERKT_S3_S3_, symObjAddr: 0x3B28, symBinAddr: 0x1000063E8, symSize: 0x2C }
  - { offsetInCU: 0xC0DC, offset: 0xC0DC, size: 0x8, addend: 0x0, symName: __ZNSt3__13minB7v160006ImNS_6__lessImmEEEERKT_S5_S5_T0_, symObjAddr: 0x3BB4, symBinAddr: 0x100006474, symSize: 0x54 }
  - { offsetInCU: 0xC171, offset: 0xC171, size: 0x8, addend: 0x0, symName: __ZNSt3__120__throw_length_errorB7v160006EPKc, symObjAddr: 0x3C90, symBinAddr: 0x100006550, symSize: 0x64 }
  - { offsetInCU: 0xC199, offset: 0xC199, size: 0x8, addend: 0x0, symName: __ZNSt3__13maxB7v160006ImNS_6__lessImmEEEERKT_S5_S5_T0_, symObjAddr: 0x3DD4, symBinAddr: 0x100006694, symSize: 0x54 }
  - { offsetInCU: 0xC1F3, offset: 0xC1F3, size: 0x8, addend: 0x0, symName: __ZNSt3__119__allocate_at_leastB7v160006INS_9allocatorIP4NodeEEEENS_19__allocation_resultINS_16allocator_traitsIT_E7pointerEEERS7_m, symObjAddr: 0x3F38, symBinAddr: 0x1000067F8, symSize: 0x40 }
  - { offsetInCU: 0xC236, offset: 0xC236, size: 0x8, addend: 0x0, symName: __ZNSt3__117__libcpp_allocateB7v160006Emm, symObjAddr: 0x40BC, symBinAddr: 0x10000697C, symSize: 0x28 }
  - { offsetInCU: 0xC273, offset: 0xC273, size: 0x8, addend: 0x0, symName: __ZNSt3__121__libcpp_operator_newB7v160006IJmEEEPvDpT_, symObjAddr: 0x40E4, symBinAddr: 0x1000069A4, symSize: 0x24 }
  - { offsetInCU: 0xC2AC, offset: 0xC2AC, size: 0x8, addend: 0x0, symName: __ZNSt3__142__uninitialized_allocator_move_if_noexceptB7v160006INS_9allocatorIP4NodeEENS_16reverse_iteratorIPS3_EES7_S3_vEET1_RT_T0_SB_S8_, symObjAddr: 0x42F0, symBinAddr: 0x100006BB0, symSize: 0x78 }
  - { offsetInCU: 0xC329, offset: 0xC329, size: 0x8, addend: 0x0, symName: __ZNSt3__14swapB7v160006IPP4NodeEENS_9enable_ifIXaasr21is_move_constructibleIT_EE5valuesr18is_move_assignableIS5_EE5valueEvE4typeERS5_S8_, symObjAddr: 0x43B4, symBinAddr: 0x100006C74, symSize: 0x3C }
  - { offsetInCU: 0xC37A, offset: 0xC37A, size: 0x8, addend: 0x0, symName: __ZNSt3__125__debug_db_invalidate_allB7v160006INS_6vectorIP4NodeNS_9allocatorIS3_EEEEEEvPT_, symObjAddr: 0x449C, symBinAddr: 0x100006D5C, symSize: 0x10 }
  - { offsetInCU: 0xC3AB, offset: 0xC3AB, size: 0x8, addend: 0x0, symName: __ZNSt3__14moveB7v160006INS_16reverse_iteratorIPP4NodeEES5_EET0_T_S7_S6_, symObjAddr: 0x44F4, symBinAddr: 0x100006DB4, symSize: 0x78 }
  - { offsetInCU: 0xC405, offset: 0xC405, size: 0x8, addend: 0x0, symName: __ZNSt3__16__moveB7v160006INS_17_ClassicAlgPolicyENS_16reverse_iteratorIPP4NodeEES6_S6_EENS_4pairIT0_T2_EES8_T1_S9_, symObjAddr: 0x456C, symBinAddr: 0x100006E2C, symSize: 0x64 }
  - { offsetInCU: 0xC471, offset: 0xC471, size: 0x8, addend: 0x0, symName: __ZNSt3__123__dispatch_copy_or_moveB7v160006INS_17_ClassicAlgPolicyENS_11__move_loopIS1_EENS_14__move_trivialENS_16reverse_iteratorIPP4NodeEES9_S9_EENS_4pairIT2_T4_EESB_T3_SC_, symObjAddr: 0x45D0, symBinAddr: 0x100006E90, symSize: 0x64 }
  - { offsetInCU: 0xC4EF, offset: 0xC4EF, size: 0x8, addend: 0x0, symName: __ZNSt3__121__unwrap_and_dispatchB7v160006INS_10__overloadINS_11__move_loopINS_17_ClassicAlgPolicyEEENS_14__move_trivialEEENS_16reverse_iteratorIPP4NodeEESB_SB_Li0EEENS_4pairIT0_T2_EESD_T1_SE_, symObjAddr: 0x4634, symBinAddr: 0x100006EF4, symSize: 0x12C }
  - { offsetInCU: 0xC57F, offset: 0xC57F, size: 0x8, addend: 0x0, symName: __ZNSt3__114__unwrap_rangeB7v160006INS_16reverse_iteratorIPP4NodeEES5_EENS_4pairIT0_S7_EET_S9_, symObjAddr: 0x4760, symBinAddr: 0x100007020, symSize: 0x84 }
  - { offsetInCU: 0xC778, offset: 0xC778, size: 0x8, addend: 0x0, symName: __ZNSt3__113__unwrap_iterB7v160006INS_16reverse_iteratorIPP4NodeEENS_18__unwrap_iter_implIS5_Lb0EEELi0EEEDTclsrT0_8__unwrapclsr3stdE7declvalIT_EEEES9_, symObjAddr: 0x4884, symBinAddr: 0x100007144, symSize: 0x44 }
  - { offsetInCU: 0xC7BC, offset: 0xC7BC, size: 0x8, addend: 0x0, symName: __ZNSt3__19make_pairB7v160006INS_16reverse_iteratorIPP4NodeEES5_EENS_4pairINS_18__unwrap_ref_decayIT_E4typeENS7_IT0_E4typeEEEOS8_OSB_, symObjAddr: 0x48C8, symBinAddr: 0x100007188, symSize: 0x38 }
  - { offsetInCU: 0xC80B, offset: 0xC80B, size: 0x8, addend: 0x0, symName: __ZNSt3__114__rewrap_rangeB7v160006INS_16reverse_iteratorIPP4NodeEES5_EET_S6_T0_, symObjAddr: 0x4900, symBinAddr: 0x1000071C0, symSize: 0x5C }
  - { offsetInCU: 0xC857, offset: 0xC857, size: 0x8, addend: 0x0, symName: __ZNSt3__113__rewrap_iterB7v160006INS_16reverse_iteratorIPP4NodeEES5_NS_18__unwrap_iter_implIS5_Lb0EEEEET_S8_T0_, symObjAddr: 0x495C, symBinAddr: 0x10000721C, symSize: 0x74 }
  - { offsetInCU: 0xC8AC, offset: 0xC8AC, size: 0x8, addend: 0x0, symName: __ZNSt3__1neB7v160006IPP4NodeS3_EEbRKNS_16reverse_iteratorIT_EERKNS4_IT0_EE, symObjAddr: 0x49D0, symBinAddr: 0x100007290, symSize: 0x48 }
  - { offsetInCU: 0xCA10, offset: 0xCA10, size: 0x8, addend: 0x0, symName: __ZNSt3__119__libcpp_deallocateB7v160006EPvmm, symObjAddr: 0x4DC8, symBinAddr: 0x100007688, symSize: 0x30 }
  - { offsetInCU: 0xCA58, offset: 0xCA58, size: 0x8, addend: 0x0, symName: __ZNSt3__127__do_deallocate_handle_sizeB7v160006IJEEEvPvmDpT_, symObjAddr: 0x4DF8, symBinAddr: 0x1000076B8, symSize: 0x28 }
  - { offsetInCU: 0xCA96, offset: 0xCA96, size: 0x8, addend: 0x0, symName: __ZNSt3__124__libcpp_operator_deleteB7v160006IJPvEEEvDpT_, symObjAddr: 0x4E20, symBinAddr: 0x1000076E0, symSize: 0x24 }
  - { offsetInCU: 0xCACB, offset: 0xCACB, size: 0x8, addend: 0x0, symName: __ZNSt3__112__to_addressB7v160006INS_6vectorI10LinkedListNS_9allocatorIS2_EEEEEEPT_S7_, symObjAddr: 0x561C, symBinAddr: 0x100007EDC, symSize: 0x14 }
  - { offsetInCU: 0xCB00, offset: 0xCB00, size: 0x8, addend: 0x0, symName: __ZNSt3__119__debug_db_insert_cB7v160006INS_6vectorI10LinkedListNS_9allocatorIS2_EEEEEEvPT_, symObjAddr: 0x5790, symBinAddr: 0x100008050, symSize: 0x10 }
  - { offsetInCU: 0xCB31, offset: 0xCB31, size: 0x8, addend: 0x0, symName: __ZNSt3__119__allocate_at_leastB7v160006INS_9allocatorINS_6vectorI10LinkedListNS1_IS3_EEEEEEEENS_19__allocation_resultINS_16allocator_traitsIT_E7pointerEEERS9_m, symObjAddr: 0x5B94, symBinAddr: 0x100008454, symSize: 0x40 }
  - { offsetInCU: 0xCB74, offset: 0xCB74, size: 0x8, addend: 0x0, symName: __ZNSt3__142__uninitialized_allocator_move_if_noexceptB7v160006INS_9allocatorINS_6vectorI10LinkedListNS1_IS3_EEEEEENS_16reverse_iteratorIPS5_EES9_S9_EET2_RT_T0_T1_SA_, symObjAddr: 0x5EF4, symBinAddr: 0x1000087B4, symSize: 0x12C }
  - { offsetInCU: 0xCC14, offset: 0xCC14, size: 0x8, addend: 0x0, symName: __ZNSt3__14swapB7v160006IPNS_6vectorI10LinkedListNS_9allocatorIS2_EEEEEENS_9enable_ifIXaasr21is_move_constructibleIT_EE5valuesr18is_move_assignableIS8_EE5valueEvE4typeERS8_SB_, symObjAddr: 0x606C, symBinAddr: 0x10000892C, symSize: 0x3C }
  - { offsetInCU: 0xCC65, offset: 0xCC65, size: 0x8, addend: 0x0, symName: __ZNSt3__125__debug_db_invalidate_allB7v160006INS_6vectorINS1_I10LinkedListNS_9allocatorIS2_EEEENS3_IS5_EEEEEEvPT_, symObjAddr: 0x6170, symBinAddr: 0x100008A30, symSize: 0x10 }
  - { offsetInCU: 0xCC96, offset: 0xCC96, size: 0x8, addend: 0x0, symName: __ZNSt3__122__make_exception_guardB7v160006INS_29_AllocatorDestroyRangeReverseINS_9allocatorINS_6vectorI10LinkedListNS2_IS4_EEEEEENS_16reverse_iteratorIPS6_EEEEEENS_28__exception_guard_exceptionsIT_EESD_, symObjAddr: 0x61C8, symBinAddr: 0x100008A88, symSize: 0x4C }
  - { offsetInCU: 0xCCCC, offset: 0xCCCC, size: 0x8, addend: 0x0, symName: __ZNSt3__1neB7v160006IPNS_6vectorI10LinkedListNS_9allocatorIS2_EEEES6_EEbRKNS_16reverse_iteratorIT_EERKNS7_IT0_EE, symObjAddr: 0x6258, symBinAddr: 0x100008B18, symSize: 0x48 }
  - { offsetInCU: 0xCD18, offset: 0xCD18, size: 0x8, addend: 0x0, symName: __ZNSt3__112__to_addressB7v160006INS_16reverse_iteratorIPNS_6vectorI10LinkedListNS_9allocatorIS3_EEEEEEvEENS_5decayIDTclsr19__to_address_helperIT_EE6__callclsr3stdE7declvalIRKSA_EEEEE4typeESC_, symObjAddr: 0x62D4, symBinAddr: 0x100008B94, symSize: 0x24 }
  - { offsetInCU: 0xCD4E, offset: 0xCD4E, size: 0x8, addend: 0x0, symName: __ZNSt3__115__debug_db_swapB7v160006INS_6vectorI10LinkedListNS_9allocatorIS2_EEEEEEvPT_S7_, symObjAddr: 0x65C8, symBinAddr: 0x100008E88, symSize: 0x14 }
  - { offsetInCU: 0xCDB6, offset: 0xCDB6, size: 0x8, addend: 0x0, symName: __ZNSt3__119__allocator_destroyB7v160006INS_9allocatorINS_6vectorI10LinkedListNS1_IS3_EEEEEENS_16reverse_iteratorINS7_IPS5_EEEESA_EEvRT_T0_T1_, symObjAddr: 0x6830, symBinAddr: 0x1000090F0, symSize: 0x70 }
  - { offsetInCU: 0xCE1B, offset: 0xCE1B, size: 0x8, addend: 0x0, symName: __ZNSt3__1neB7v160006INS_16reverse_iteratorIPNS_6vectorI10LinkedListNS_9allocatorIS3_EEEEEES8_EEbRKNS1_IT_EERKNS1_IT0_EE, symObjAddr: 0x68DC, symBinAddr: 0x10000919C, symSize: 0x60 }
  - { offsetInCU: 0xCE67, offset: 0xCE67, size: 0x8, addend: 0x0, symName: __ZNSt3__112__to_addressB7v160006INS_16reverse_iteratorINS1_IPNS_6vectorI10LinkedListNS_9allocatorIS3_EEEEEEEEvEENS_5decayIDTclsr19__to_address_helperIT_EE6__callclsr3stdE7declvalIRKSB_EEEEE4typeESD_, symObjAddr: 0x6968, symBinAddr: 0x100009228, symSize: 0x24 }
  - { offsetInCU: 0xCE9D, offset: 0xCE9D, size: 0x8, addend: 0x0, symName: __ZNSt3__118__debug_db_erase_cB7v160006INS_6vectorI10LinkedListNS_9allocatorIS2_EEEEEEvPT_, symObjAddr: 0x6C3C, symBinAddr: 0x1000094FC, symSize: 0x10 }
  - { offsetInCU: 0xCECE, offset: 0xCECE, size: 0x8, addend: 0x0, symName: __ZNSt3__112__to_addressB7v160006I10LinkedListEEPT_S3_, symObjAddr: 0x6D58, symBinAddr: 0x100009618, symSize: 0x14 }
  - { offsetInCU: 0xCF2C, offset: 0xCF2C, size: 0x8, addend: 0x0, symName: __ZNSt3__120__throw_out_of_rangeB7v160006EPKc, symObjAddr: 0x73D0, symBinAddr: 0x100009C90, symSize: 0x64 }
  - { offsetInCU: 0xCF56, offset: 0xCF56, size: 0x8, addend: 0x0, symName: __ZNSt3__119__allocate_at_leastB7v160006INS_9allocatorI10LinkedListEEEENS_19__allocation_resultINS_16allocator_traitsIT_E7pointerEEERS6_m, symObjAddr: 0x7D30, symBinAddr: 0x10000A5F0, symSize: 0x40 }
  - { offsetInCU: 0xCF99, offset: 0xCF99, size: 0x8, addend: 0x0, symName: __ZNSt3__142__uninitialized_allocator_move_if_noexceptB7v160006INS_9allocatorI10LinkedListEENS_16reverse_iteratorIPS2_EES6_S2_vEET1_RT_T0_SA_S7_, symObjAddr: 0x7FBC, symBinAddr: 0x10000A87C, symSize: 0x78 }
  - { offsetInCU: 0xD016, offset: 0xD016, size: 0x8, addend: 0x0, symName: __ZNSt3__14swapB7v160006IP10LinkedListEENS_9enable_ifIXaasr21is_move_constructibleIT_EE5valuesr18is_move_assignableIS4_EE5valueEvE4typeERS4_S7_, symObjAddr: 0x8080, symBinAddr: 0x10000A940, symSize: 0x3C }
  - { offsetInCU: 0xD067, offset: 0xD067, size: 0x8, addend: 0x0, symName: __ZNSt3__125__debug_db_invalidate_allB7v160006INS_6vectorI10LinkedListNS_9allocatorIS2_EEEEEEvPT_, symObjAddr: 0x8184, symBinAddr: 0x10000AA44, symSize: 0x10 }
  - { offsetInCU: 0xD098, offset: 0xD098, size: 0x8, addend: 0x0, symName: __ZNSt3__14moveB7v160006INS_16reverse_iteratorIP10LinkedListEES4_EET0_T_S6_S5_, symObjAddr: 0x8194, symBinAddr: 0x10000AA54, symSize: 0x78 }
  - { offsetInCU: 0xD0F2, offset: 0xD0F2, size: 0x8, addend: 0x0, symName: __ZNSt3__16__moveB7v160006INS_17_ClassicAlgPolicyENS_16reverse_iteratorIP10LinkedListEES5_S5_EENS_4pairIT0_T2_EES7_T1_S8_, symObjAddr: 0x820C, symBinAddr: 0x10000AACC, symSize: 0x64 }
  - { offsetInCU: 0xD15E, offset: 0xD15E, size: 0x8, addend: 0x0, symName: __ZNSt3__123__dispatch_copy_or_moveB7v160006INS_17_ClassicAlgPolicyENS_11__move_loopIS1_EENS_14__move_trivialENS_16reverse_iteratorIP10LinkedListEES8_S8_EENS_4pairIT2_T4_EESA_T3_SB_, symObjAddr: 0x8270, symBinAddr: 0x10000AB30, symSize: 0x64 }
  - { offsetInCU: 0xD1DC, offset: 0xD1DC, size: 0x8, addend: 0x0, symName: __ZNSt3__121__unwrap_and_dispatchB7v160006INS_10__overloadINS_11__move_loopINS_17_ClassicAlgPolicyEEENS_14__move_trivialEEENS_16reverse_iteratorIP10LinkedListEESA_SA_Li0EEENS_4pairIT0_T2_EESC_T1_SD_, symObjAddr: 0x82D4, symBinAddr: 0x10000AB94, symSize: 0x12C }
  - { offsetInCU: 0xD26C, offset: 0xD26C, size: 0x8, addend: 0x0, symName: __ZNSt3__114__unwrap_rangeB7v160006INS_16reverse_iteratorIP10LinkedListEES4_EENS_4pairIT0_S6_EET_S8_, symObjAddr: 0x8400, symBinAddr: 0x10000ACC0, symSize: 0x84 }
  - { offsetInCU: 0xD38C, offset: 0xD38C, size: 0x8, addend: 0x0, symName: __ZNSt3__113__unwrap_iterB7v160006INS_16reverse_iteratorIP10LinkedListEENS_18__unwrap_iter_implIS4_Lb0EEELi0EEEDTclsrT0_8__unwrapclsr3stdE7declvalIT_EEEES8_, symObjAddr: 0x852C, symBinAddr: 0x10000ADEC, symSize: 0x44 }
  - { offsetInCU: 0xD3D0, offset: 0xD3D0, size: 0x8, addend: 0x0, symName: __ZNSt3__19make_pairB7v160006INS_16reverse_iteratorIP10LinkedListEES4_EENS_4pairINS_18__unwrap_ref_decayIT_E4typeENS6_IT0_E4typeEEEOS7_OSA_, symObjAddr: 0x8570, symBinAddr: 0x10000AE30, symSize: 0x38 }
  - { offsetInCU: 0xD41F, offset: 0xD41F, size: 0x8, addend: 0x0, symName: __ZNSt3__114__rewrap_rangeB7v160006INS_16reverse_iteratorIP10LinkedListEES4_EET_S5_T0_, symObjAddr: 0x85A8, symBinAddr: 0x10000AE68, symSize: 0x5C }
  - { offsetInCU: 0xD46B, offset: 0xD46B, size: 0x8, addend: 0x0, symName: __ZNSt3__113__rewrap_iterB7v160006INS_16reverse_iteratorIP10LinkedListEES4_NS_18__unwrap_iter_implIS4_Lb0EEEEET_S7_T0_, symObjAddr: 0x8604, symBinAddr: 0x10000AEC4, symSize: 0x74 }
  - { offsetInCU: 0xD4C0, offset: 0xD4C0, size: 0x8, addend: 0x0, symName: __ZNSt3__1neB7v160006IP10LinkedListS2_EEbRKNS_16reverse_iteratorIT_EERKNS3_IT0_EE, symObjAddr: 0x8678, symBinAddr: 0x10000AF38, symSize: 0x48 }
  - { offsetInCU: 0xD578, offset: 0xD578, size: 0x8, addend: 0x0, symName: __ZNSt3__118__debug_db_erase_cB7v160006INS_6vectorINS1_I10LinkedListNS_9allocatorIS2_EEEENS3_IS5_EEEEEEvPT_, symObjAddr: 0x8C20, symBinAddr: 0x10000B4E0, symSize: 0x10 }
  - { offsetInCU: 0xD5A9, offset: 0xD5A9, size: 0x8, addend: 0x0, symName: __ZNSt3__118__debug_db_erase_cB7v160006INS_6vectorIP4NodeNS_9allocatorIS3_EEEEEEvPT_, symObjAddr: 0x8D8C, symBinAddr: 0x10000B64C, symSize: 0x10 }
  - { offsetInCU: 0xD5DA, offset: 0xD5DA, size: 0x8, addend: 0x0, symName: __ZNSt3__119__debug_db_insert_cB7v160006INS_6vectorIiNS_9allocatorIiEEEEEEvPT_, symObjAddr: 0x92FC, symBinAddr: 0x10000BBBC, symSize: 0x10 }
  - { offsetInCU: 0xD60B, offset: 0xD60B, size: 0x8, addend: 0x0, symName: __ZNSt3__112__to_addressB7v160006IiEEPT_S2_, symObjAddr: 0x9634, symBinAddr: 0x10000BEF4, symSize: 0x14 }
  - { offsetInCU: 0xD640, offset: 0xD640, size: 0x8, addend: 0x0, symName: __ZNSt3__119__allocate_at_leastB7v160006INS_9allocatorIiEEEENS_19__allocation_resultINS_16allocator_traitsIT_E7pointerEEERS5_m, symObjAddr: 0x9C38, symBinAddr: 0x10000C4F8, symSize: 0x40 }
  - { offsetInCU: 0xD683, offset: 0xD683, size: 0x8, addend: 0x0, symName: __ZNSt3__142__uninitialized_allocator_move_if_noexceptB7v160006INS_9allocatorIiEENS_16reverse_iteratorIPiEES5_ivEET1_RT_T0_S9_S6_, symObjAddr: 0x9EA4, symBinAddr: 0x10000C764, symSize: 0x78 }
  - { offsetInCU: 0xD700, offset: 0xD700, size: 0x8, addend: 0x0, symName: __ZNSt3__14swapB7v160006IPiEENS_9enable_ifIXaasr21is_move_constructibleIT_EE5valuesr18is_move_assignableIS3_EE5valueEvE4typeERS3_S6_, symObjAddr: 0x9F68, symBinAddr: 0x10000C828, symSize: 0x3C }
  - { offsetInCU: 0xD751, offset: 0xD751, size: 0x8, addend: 0x0, symName: __ZNSt3__125__debug_db_invalidate_allB7v160006INS_6vectorIiNS_9allocatorIiEEEEEEvPT_, symObjAddr: 0xA050, symBinAddr: 0x10000C910, symSize: 0x10 }
  - { offsetInCU: 0xD782, offset: 0xD782, size: 0x8, addend: 0x0, symName: __ZNSt3__14moveB7v160006INS_16reverse_iteratorIPiEES3_EET0_T_S5_S4_, symObjAddr: 0xA0A8, symBinAddr: 0x10000C968, symSize: 0x78 }
  - { offsetInCU: 0xD7DC, offset: 0xD7DC, size: 0x8, addend: 0x0, symName: __ZNSt3__16__moveB7v160006INS_17_ClassicAlgPolicyENS_16reverse_iteratorIPiEES4_S4_EENS_4pairIT0_T2_EES6_T1_S7_, symObjAddr: 0xA120, symBinAddr: 0x10000C9E0, symSize: 0x64 }
  - { offsetInCU: 0xD848, offset: 0xD848, size: 0x8, addend: 0x0, symName: __ZNSt3__123__dispatch_copy_or_moveB7v160006INS_17_ClassicAlgPolicyENS_11__move_loopIS1_EENS_14__move_trivialENS_16reverse_iteratorIPiEES7_S7_EENS_4pairIT2_T4_EES9_T3_SA_, symObjAddr: 0xA184, symBinAddr: 0x10000CA44, symSize: 0x64 }
  - { offsetInCU: 0xD8C6, offset: 0xD8C6, size: 0x8, addend: 0x0, symName: __ZNSt3__121__unwrap_and_dispatchB7v160006INS_10__overloadINS_11__move_loopINS_17_ClassicAlgPolicyEEENS_14__move_trivialEEENS_16reverse_iteratorIPiEES9_S9_Li0EEENS_4pairIT0_T2_EESB_T1_SC_, symObjAddr: 0xA1E8, symBinAddr: 0x10000CAA8, symSize: 0x12C }
  - { offsetInCU: 0xD956, offset: 0xD956, size: 0x8, addend: 0x0, symName: __ZNSt3__114__unwrap_rangeB7v160006INS_16reverse_iteratorIPiEES3_EENS_4pairIT0_S5_EET_S7_, symObjAddr: 0xA314, symBinAddr: 0x10000CBD4, symSize: 0x84 }
  - { offsetInCU: 0xDA76, offset: 0xDA76, size: 0x8, addend: 0x0, symName: __ZNSt3__113__unwrap_iterB7v160006INS_16reverse_iteratorIPiEENS_18__unwrap_iter_implIS3_Lb0EEELi0EEEDTclsrT0_8__unwrapclsr3stdE7declvalIT_EEEES7_, symObjAddr: 0xA438, symBinAddr: 0x10000CCF8, symSize: 0x44 }
  - { offsetInCU: 0xDABA, offset: 0xDABA, size: 0x8, addend: 0x0, symName: __ZNSt3__19make_pairB7v160006INS_16reverse_iteratorIPiEES3_EENS_4pairINS_18__unwrap_ref_decayIT_E4typeENS5_IT0_E4typeEEEOS6_OS9_, symObjAddr: 0xA47C, symBinAddr: 0x10000CD3C, symSize: 0x38 }
  - { offsetInCU: 0xDB09, offset: 0xDB09, size: 0x8, addend: 0x0, symName: __ZNSt3__114__rewrap_rangeB7v160006INS_16reverse_iteratorIPiEES3_EET_S4_T0_, symObjAddr: 0xA4B4, symBinAddr: 0x10000CD74, symSize: 0x5C }
  - { offsetInCU: 0xDB55, offset: 0xDB55, size: 0x8, addend: 0x0, symName: __ZNSt3__113__rewrap_iterB7v160006INS_16reverse_iteratorIPiEES3_NS_18__unwrap_iter_implIS3_Lb0EEEEET_S6_T0_, symObjAddr: 0xA510, symBinAddr: 0x10000CDD0, symSize: 0x74 }
  - { offsetInCU: 0xDBAA, offset: 0xDBAA, size: 0x8, addend: 0x0, symName: __ZNSt3__1neB7v160006IPiS1_EEbRKNS_16reverse_iteratorIT_EERKNS2_IT0_EE, symObjAddr: 0xA584, symBinAddr: 0x10000CE44, symSize: 0x48 }
  - { offsetInCU: 0xDC62, offset: 0xDC62, size: 0x8, addend: 0x0, symName: __ZNSt3__119__debug_db_insert_cB7v160006INS_12basic_stringIcNS_11char_traitsIcEENS_9allocatorIcEEEEEEvPT_, symObjAddr: 0xAA58, symBinAddr: 0x10000D318, symSize: 0x10 }
  - { offsetInCU: 0xDC93, offset: 0xDC93, size: 0x8, addend: 0x0, symName: __ZNSt3__116__pad_and_outputB7v160006IcNS_11char_traitsIcEEEENS_19ostreambuf_iteratorIT_T0_EES6_PKS4_S8_S8_RNS_8ios_baseES4_, symObjAddr: 0xADD8, symBinAddr: 0x10000D698, symSize: 0x240 }
  - { offsetInCU: 0xDD62, offset: 0xDD62, size: 0x8, addend: 0x0, symName: __ZNSt3__112__to_addressB7v160006IKcEEPT_S3_, symObjAddr: 0xB250, symBinAddr: 0x10000DB10, symSize: 0x14 }
  - { offsetInCU: 0xDDCA, offset: 0xDDCA, size: 0x8, addend: 0x0, symName: __ZNSt3__19use_facetB7v160006INS_5ctypeIcEEEERKT_RKNS_6localeE, symObjAddr: 0xB4D0, symBinAddr: 0x10000DD90, symSize: 0x2C }
  - { offsetInCU: 0xE299, offset: 0xE299, size: 0x8, addend: 0x0, symName: __ZNSt3__118__constexpr_strlenB7v160006EPKc, symObjAddr: 0xB568, symBinAddr: 0x10000DE28, symSize: 0x24 }
  - { offsetInCU: 0xE2C5, offset: 0xE2C5, size: 0x8, addend: 0x0, symName: __ZNSt3__118__debug_db_erase_cB7v160006INS_6vectorIiNS_9allocatorIiEEEEEEvPT_, symObjAddr: 0xB770, symBinAddr: 0x10000E030, symSize: 0x10 }
  - { offsetInCU: 0xE2F6, offset: 0xE2F6, size: 0x8, addend: 0x0, symName: __ZNSt3__1eqB7v160006IiNS_9allocatorIiEEEEbRKNS_6vectorIT_T0_EES8_, symObjAddr: 0xB834, symBinAddr: 0x10000E0F4, symSize: 0x9C }
  - { offsetInCU: 0xE354, offset: 0xE354, size: 0x8, addend: 0x0, symName: __ZNSt3__15equalB7v160006INS_11__wrap_iterIPKiEES4_EEbT_S5_T0_, symObjAddr: 0xB8D0, symBinAddr: 0x10000E190, symSize: 0x50 }
  - { offsetInCU: 0xE3AE, offset: 0xE3AE, size: 0x8, addend: 0x0, symName: __ZNSt3__15equalB7v160006INS_11__wrap_iterIPKiEES4_NS_10__equal_toEEEbT_S6_T0_T1_, symObjAddr: 0xB980, symBinAddr: 0x10000E240, symSize: 0xB0 }
  - { offsetInCU: 0xE41F, offset: 0xE41F, size: 0x8, addend: 0x0, symName: __ZNSt3__1neB7v160006IPKiEEbRKNS_11__wrap_iterIT_EES7_, symObjAddr: 0xBA30, symBinAddr: 0x10000E2F0, symSize: 0x34 }
  - { offsetInCU: 0xE49D, offset: 0xE49D, size: 0x8, addend: 0x0, symName: __ZNSt3__1eqB7v160006IPKiEEbRKNS_11__wrap_iterIT_EES7_, symObjAddr: 0xBAD0, symBinAddr: 0x10000E390, symSize: 0x48 }
  - { offsetInCU: 0xE917, offset: 0xE917, size: 0x8, addend: 0x0, symName: __ZSt28__throw_bad_array_new_lengthB7v160006v, symObjAddr: 0x4088, symBinAddr: 0x100006948, symSize: 0x34 }
  - { offsetInCU: 0xEADB, offset: 0xEADB, size: 0x8, addend: 0x0, symName: __ZL11__last_rand, symObjAddr: 0x5EB90, symBinAddr: 0x100014070, symSize: 0x0 }
  - { offsetInCU: 0xEAF4, offset: 0xEAF4, size: 0x8, addend: 0x0, symName: __ZL3__a, symObjAddr: 0xC1F0, symBinAddr: 0x100014010, symSize: 0x0 }
  - { offsetInCU: 0xEB0D, offset: 0xEB0D, size: 0x8, addend: 0x0, symName: __ZL3__c, symObjAddr: 0xC1F8, symBinAddr: 0x100014018, symSize: 0x0 }
  - { offsetInCU: 0xEB26, offset: 0xEB26, size: 0x8, addend: 0x0, symName: __ZL3__m, symObjAddr: 0xC200, symBinAddr: 0x100014020, symSize: 0x0 }
  - { offsetInCU: 0xEE5D, offset: 0xEE5D, size: 0x8, addend: 0x0, symName: __ZNSt3__16vectorIP4NodeNS_9allocatorIS2_EEE26__swap_out_circular_bufferERNS_14__split_bufferIS2_RS4_EE, symObjAddr: 0x3750, symBinAddr: 0x100006010, symSize: 0x118 }
  - { offsetInCU: 0xF2B0, offset: 0xF2B0, size: 0x8, addend: 0x0, symName: __ZNSt3__16vectorINS0_I10LinkedListNS_9allocatorIS1_EEEENS2_IS4_EEE26__swap_out_circular_bufferERNS_14__split_bufferIS4_RS5_EE, symObjAddr: 0x5438, symBinAddr: 0x100007CF8, symSize: 0x118 }
  - { offsetInCU: 0xF355, offset: 0xF355, size: 0x8, addend: 0x0, symName: __ZNSt3__16vectorI10LinkedListNS_9allocatorIS1_EEE26__swap_out_circular_bufferERNS_14__split_bufferIS1_RS3_EE, symObjAddr: 0x7890, symBinAddr: 0x10000A150, symSize: 0x118 }
  - { offsetInCU: 0xF52B, offset: 0xF52B, size: 0x8, addend: 0x0, symName: __ZNSt3__16vectorIiNS_9allocatorIiEEE26__swap_out_circular_bufferERNS_14__split_bufferIiRS2_EE, symObjAddr: 0x9830, symBinAddr: 0x10000C0F0, symSize: 0x118 }
  - { offsetInCU: 0x1191B, offset: 0x1191B, size: 0x8, addend: 0x0, symName: __ZN10LinkedListC2Ev, symObjAddr: 0x0, symBinAddr: 0x1000028C0, symSize: 0x20 }
  - { offsetInCU: 0x11945, offset: 0x11945, size: 0x8, addend: 0x0, symName: __ZN10LinkedListC1Ev, symObjAddr: 0x20, symBinAddr: 0x1000028E0, symSize: 0x2C }
  - { offsetInCU: 0x1196F, offset: 0x1196F, size: 0x8, addend: 0x0, symName: __ZNK10LinkedList5frontEv, symObjAddr: 0x4C, symBinAddr: 0x10000290C, symSize: 0x18 }
  - { offsetInCU: 0x11995, offset: 0x11995, size: 0x8, addend: 0x0, symName: __ZNK10LinkedList4backEv, symObjAddr: 0x64, symBinAddr: 0x100002924, symSize: 0x18 }
  - { offsetInCU: 0x119BB, offset: 0x119BB, size: 0x8, addend: 0x0, symName: __ZN10LinkedList9pushFrontEiii, symObjAddr: 0x7C, symBinAddr: 0x10000293C, symSize: 0xE8 }
  - { offsetInCU: 0x11A19, offset: 0x11A19, size: 0x8, addend: 0x0, symName: __ZN10LinkedList8pushBackEiii, symObjAddr: 0x164, symBinAddr: 0x100002A24, symSize: 0xE8 }
  - { offsetInCU: 0x11A77, offset: 0x11A77, size: 0x8, addend: 0x0, symName: __ZN10LinkedList8popFrontERi, symObjAddr: 0x24C, symBinAddr: 0x100002B0C, symSize: 0x128 }
  - { offsetInCU: 0x11AC8, offset: 0x11AC8, size: 0x8, addend: 0x0, symName: __ZN10LinkedList7popBackERi, symObjAddr: 0x374, symBinAddr: 0x100002C34, symSize: 0x128 }
  - { offsetInCU: 0x11B19, offset: 0x11B19, size: 0x8, addend: 0x0, symName: __ZN10LinkedList20removeNodeFromMiddleEP4Node, symObjAddr: 0x49C, symBinAddr: 0x100002D5C, symSize: 0x7C }
  - { offsetInCU: 0x11B4D, offset: 0x11B4D, size: 0x8, addend: 0x0, symName: __ZNK10LinkedList6lengthEv, symObjAddr: 0x518, symBinAddr: 0x100002DD8, symSize: 0x18 }
  - { offsetInCU: 0x11B73, offset: 0x11B73, size: 0x8, addend: 0x0, symName: __ZNSt3__112basic_stringIcNS_11char_traitsIcEENS_9allocatorIcEEEC1B7v160006Ev, symObjAddr: 0x530, symBinAddr: 0x100002DF0, symSize: 0x2C }
  - { offsetInCU: 0x11B9C, offset: 0x11B9C, size: 0x8, addend: 0x0, symName: __Z8_red_txtv, symObjAddr: 0x55C, symBinAddr: 0x100002E1C, symSize: 0x3C }
  - { offsetInCU: 0x11BB6, offset: 0x11BB6, size: 0x8, addend: 0x0, symName: __Z10_green_txtv, symObjAddr: 0x598, symBinAddr: 0x100002E58, symSize: 0x3C }
  - { offsetInCU: 0x11BD0, offset: 0x11BD0, size: 0x8, addend: 0x0, symName: __Z11_yellow_txtv, symObjAddr: 0x5D4, symBinAddr: 0x100002E94, symSize: 0x3C }
  - { offsetInCU: 0x11BEA, offset: 0x11BEA, size: 0x8, addend: 0x0, symName: __Z9_BLUE_txtv, symObjAddr: 0x610, symBinAddr: 0x100002ED0, symSize: 0x3C }
  - { offsetInCU: 0x11C04, offset: 0x11C04, size: 0x8, addend: 0x0, symName: __Z9_CYAN_txtv, symObjAddr: 0x64C, symBinAddr: 0x100002F0C, symSize: 0x3C }
  - { offsetInCU: 0x11C1E, offset: 0x11C1E, size: 0x8, addend: 0x0, symName: __Z9_cyan_txtv, symObjAddr: 0x688, symBinAddr: 0x100002F48, symSize: 0x3C }
  - { offsetInCU: 0x11C38, offset: 0x11C38, size: 0x8, addend: 0x0, symName: __Z11_purple_txtv, symObjAddr: 0x6C4, symBinAddr: 0x100002F84, symSize: 0x3C }
  - { offsetInCU: 0x11C52, offset: 0x11C52, size: 0x8, addend: 0x0, symName: __Z11_normal_txtv, symObjAddr: 0x700, symBinAddr: 0x100002FC0, symSize: 0x3C }
  - { offsetInCU: 0x11C6B, offset: 0x11C6B, size: 0x8, addend: 0x0, symName: __Z11set_ntrialsi, symObjAddr: 0x73C, symBinAddr: 0x100002FFC, symSize: 0x1C }
  - { offsetInCU: 0x11C94, offset: 0x11C94, size: 0x8, addend: 0x0, symName: __Z6ERRMSGNSt3__112basic_stringIcNS_11char_traitsIcEENS_9allocatorIcEEEE, symObjAddr: 0x758, symBinAddr: 0x100003018, symSize: 0x48 }
  - { offsetInCU: 0x11CBE, offset: 0x11CBE, size: 0x8, addend: 0x0, symName: __ZNSt3__113basic_ostreamIcNS_11char_traitsIcEEElsB7v160006EPFRS3_S4_E, symObjAddr: 0x834, symBinAddr: 0x1000030F4, symSize: 0x2C }
  - { offsetInCU: 0x11CF1, offset: 0x11CF1, size: 0x8, addend: 0x0, symName: __Z6ERRMSGNSt3__112basic_stringIcNS_11char_traitsIcEENS_9allocatorIcEEEEi, symObjAddr: 0x8B8, symBinAddr: 0x100003178, symSize: 0x60 }
  - { offsetInCU: 0x11D29, offset: 0x11D29, size: 0x8, addend: 0x0, symName: __Z6ERRMSGNSt3__112basic_stringIcNS_11char_traitsIcEENS_9allocatorIcEEEEii, symObjAddr: 0x918, symBinAddr: 0x1000031D8, symSize: 0x78 }
  - { offsetInCU: 0x11D6F, offset: 0x11D6F, size: 0x8, addend: 0x0, symName: __Z6ERRMSGNSt3__112basic_stringIcNS_11char_traitsIcEENS_9allocatorIcEEEEiii, symObjAddr: 0x990, symBinAddr: 0x100003250, symSize: 0x8C }
  - { offsetInCU: 0x11DC2, offset: 0x11DC2, size: 0x8, addend: 0x0, symName: __Z6_srandl, symObjAddr: 0xA1C, symBinAddr: 0x1000032DC, symSize: 0x1C }
  - { offsetInCU: 0x11DEB, offset: 0x11DEB, size: 0x8, addend: 0x0, symName: __Z5_randv, symObjAddr: 0xA38, symBinAddr: 0x1000032F8, symSize: 0x40 }
  - { offsetInCU: 0x11E09, offset: 0x11E09, size: 0x8, addend: 0x0, symName: __Z6reportv, symObjAddr: 0xA78, symBinAddr: 0x100003338, symSize: 0x148 }
  - { offsetInCU: 0x11E24, offset: 0x11E24, size: 0x8, addend: 0x0, symName: __Z4pvecRNSt3__16vectorIiNS_9allocatorIiEEEE, symObjAddr: 0xBC0, symBinAddr: 0x100003480, symSize: 0xB0 }
  - { offsetInCU: 0x11E5B, offset: 0x11E5B, size: 0x8, addend: 0x0, symName: __ZNKSt3__16vectorIiNS_9allocatorIiEEE4sizeB7v160006Ev, symObjAddr: 0xC70, symBinAddr: 0x100003530, symSize: 0x28 }
  - { offsetInCU: 0x11E80, offset: 0x11E80, size: 0x8, addend: 0x0, symName: __ZNSt3__16vectorIiNS_9allocatorIiEEEixB7v160006Em, symObjAddr: 0xC98, symBinAddr: 0x100003558, symSize: 0x24 }
  - { offsetInCU: 0x11EB5, offset: 0x11EB5, size: 0x8, addend: 0x0, symName: __Z3t2Bi, symObjAddr: 0xCBC, symBinAddr: 0x10000357C, symSize: 0x394 }
  - { offsetInCU: 0x1213F, offset: 0x1213F, size: 0x8, addend: 0x0, symName: __ZN9GridWorldC1Ejj, symObjAddr: 0x1050, symBinAddr: 0x100003910, symSize: 0x3C }
  - { offsetInCU: 0x12184, offset: 0x12184, size: 0x8, addend: 0x0, symName: __ZNSt3__16vectorIiNS_9allocatorIiEEEC1B7v160006Ev, symObjAddr: 0x108C, symBinAddr: 0x10000394C, symSize: 0x2C }
  - { offsetInCU: 0x121AD, offset: 0x121AD, size: 0x8, addend: 0x0, symName: __ZN9GridWorld5birthEiiRi, symObjAddr: 0x10B8, symBinAddr: 0x100003978, symSize: 0x1FC }
  - { offsetInCU: 0x12209, offset: 0x12209, size: 0x8, addend: 0x0, symName: __ZNSt3__16vectorIiNS_9allocatorIiEEE9push_backB7v160006ERKi, symObjAddr: 0x12B4, symBinAddr: 0x100003B74, symSize: 0x6C }
  - { offsetInCU: 0x1223F, offset: 0x1223F, size: 0x8, addend: 0x0, symName: __ZN9GridWorld5deathEi, symObjAddr: 0x1320, symBinAddr: 0x100003BE0, symSize: 0xEC }
  - { offsetInCU: 0x12272, offset: 0x12272, size: 0x8, addend: 0x0, symName: __ZNK9GridWorld10populationEv, symObjAddr: 0x140C, symBinAddr: 0x100003CCC, symSize: 0x18 }
  - { offsetInCU: 0x12297, offset: 0x12297, size: 0x8, addend: 0x0, symName: __ZNK9GridWorld7whereisEiRiS0_, symObjAddr: 0x1424, symBinAddr: 0x100003CE4, symSize: 0xDC }
  - { offsetInCU: 0x122E6, offset: 0x122E6, size: 0x8, addend: 0x0, symName: __ZN9GridWorldD1Ev, symObjAddr: 0x1500, symBinAddr: 0x100003DC0, symSize: 0x2C }
  - { offsetInCU: 0x1230F, offset: 0x1230F, size: 0x8, addend: 0x0, symName: __ZNSt3__16vectorIiNS_9allocatorIiEEED1B7v160006Ev, symObjAddr: 0x152C, symBinAddr: 0x100003DEC, symSize: 0x2C }
  - { offsetInCU: 0x12337, offset: 0x12337, size: 0x8, addend: 0x0, symName: __Z3t2Ci, symObjAddr: 0x1558, symBinAddr: 0x100003E18, symSize: 0xCEC }
  - { offsetInCU: 0x12433, offset: 0x12433, size: 0x8, addend: 0x0, symName: __ZNK9GridWorld7membersEii, symObjAddr: 0x2244, symBinAddr: 0x100004B04, symSize: 0x118 }
  - { offsetInCU: 0x12494, offset: 0x12494, size: 0x8, addend: 0x0, symName: __ZNK9GridWorld10populationEii, symObjAddr: 0x2390, symBinAddr: 0x100004C50, symSize: 0x40 }
  - { offsetInCU: 0x124D7, offset: 0x124D7, size: 0x8, addend: 0x0, symName: _main, symObjAddr: 0x23D0, symBinAddr: 0x100004C90, symSize: 0x74C }
  - { offsetInCU: 0x125B8, offset: 0x125B8, size: 0x8, addend: 0x0, symName: __ZNSt3__112basic_stringIcNS_11char_traitsIcEENS_9allocatorIcEEEaSB7v160006EPKc, symObjAddr: 0x2B1C, symBinAddr: 0x1000053DC, symSize: 0x2C }
  - { offsetInCU: 0x1260A, offset: 0x1260A, size: 0x8, addend: 0x0, symName: __ZNSt3__16chrono10time_pointINS0_12steady_clockENS0_8durationIxNS_5ratioILl1ELl1000000000EEEEEEC1B7v160006Ev, symObjAddr: 0x2B48, symBinAddr: 0x100005408, symSize: 0x2C }
  - { offsetInCU: 0x12633, offset: 0x12633, size: 0x8, addend: 0x0, symName: __ZNKSt3__16chrono8durationIxNS_5ratioILl1ELl1000000000EEEE5countB7v160006Ev, symObjAddr: 0x2BCC, symBinAddr: 0x10000548C, symSize: 0x18 }
  - { offsetInCU: 0x12658, offset: 0x12658, size: 0x8, addend: 0x0, symName: __ZN9GridWorldC2Ejj, symObjAddr: 0x2BE4, symBinAddr: 0x1000054A4, symSize: 0x12C }
  - { offsetInCU: 0x126BA, offset: 0x126BA, size: 0x8, addend: 0x0, symName: __ZNSt3__16vectorIP4NodeNS_9allocatorIS2_EEEC1B7v160006Ev, symObjAddr: 0x2D10, symBinAddr: 0x1000055D0, symSize: 0x2C }
  - { offsetInCU: 0x126E3, offset: 0x126E3, size: 0x8, addend: 0x0, symName: __ZNSt3__16vectorINS0_I10LinkedListNS_9allocatorIS1_EEEENS2_IS4_EEEC1B7v160006Ev, symObjAddr: 0x2D3C, symBinAddr: 0x1000055FC, symSize: 0x2C }
  - { offsetInCU: 0x1270B, offset: 0x1270B, size: 0x8, addend: 0x0, symName: __ZNSt3__16vectorIP4NodeNS_9allocatorIS2_EEE6resizeEmRKS2_, symObjAddr: 0x2D68, symBinAddr: 0x100005628, symSize: 0x9C }
  - { offsetInCU: 0x1275E, offset: 0x1275E, size: 0x8, addend: 0x0, symName: __ZNSt3__16vectorINS0_I10LinkedListNS_9allocatorIS1_EEEENS2_IS4_EEE6resizeEm, symObjAddr: 0x2E04, symBinAddr: 0x1000056C4, symSize: 0x9C }
  - { offsetInCU: 0x127A2, offset: 0x127A2, size: 0x8, addend: 0x0, symName: __ZNSt3__16vectorINS0_I10LinkedListNS_9allocatorIS1_EEEENS2_IS4_EEE2atEm, symObjAddr: 0x2EA0, symBinAddr: 0x100005760, symSize: 0x68 }
  - { offsetInCU: 0x127D7, offset: 0x127D7, size: 0x8, addend: 0x0, symName: __ZNSt3__16vectorI10LinkedListNS_9allocatorIS1_EEE6resizeEm, symObjAddr: 0x2F08, symBinAddr: 0x1000057C8, symSize: 0x9C }
  - { offsetInCU: 0x1281C, offset: 0x1281C, size: 0x8, addend: 0x0, symName: __ZNSt3__16vectorINS0_I10LinkedListNS_9allocatorIS1_EEEENS2_IS4_EEED1B7v160006Ev, symObjAddr: 0x2FA4, symBinAddr: 0x100005864, symSize: 0x2C }
  - { offsetInCU: 0x12845, offset: 0x12845, size: 0x8, addend: 0x0, symName: __ZNSt3__16vectorIP4NodeNS_9allocatorIS2_EEED1B7v160006Ev, symObjAddr: 0x2FD0, symBinAddr: 0x100005890, symSize: 0x2C }
  - { offsetInCU: 0x1286E, offset: 0x1286E, size: 0x8, addend: 0x0, symName: __ZNSt3__16vectorIP4NodeNS_9allocatorIS2_EEEC2B7v160006Ev, symObjAddr: 0x2FFC, symBinAddr: 0x1000058BC, symSize: 0x58 }
  - { offsetInCU: 0x128A1, offset: 0x128A1, size: 0x8, addend: 0x0, symName: __ZNSt3__117__compressed_pairIPP4NodeNS_9allocatorIS2_EEEC1B7v160006IDnNS_18__default_init_tagEEEOT_OT0_, symObjAddr: 0x3054, symBinAddr: 0x100005914, symSize: 0x3C }
  - { offsetInCU: 0x128F8, offset: 0x128F8, size: 0x8, addend: 0x0, symName: __ZNSt3__117__compressed_pairIPP4NodeNS_9allocatorIS2_EEEC2B7v160006IDnNS_18__default_init_tagEEEOT_OT0_, symObjAddr: 0x30AC, symBinAddr: 0x10000596C, symSize: 0x40 }
  - { offsetInCU: 0x1294F, offset: 0x1294F, size: 0x8, addend: 0x0, symName: __ZNSt3__122__compressed_pair_elemIPP4NodeLi0ELb0EEC2B7v160006IDnvEEOT_, symObjAddr: 0x30EC, symBinAddr: 0x1000059AC, symSize: 0x1C }
  - { offsetInCU: 0x12990, offset: 0x12990, size: 0x8, addend: 0x0, symName: __ZNSt3__122__compressed_pair_elemINS_9allocatorIP4NodeEELi1ELb1EEC2B7v160006ENS_18__default_init_tagE, symObjAddr: 0x3108, symBinAddr: 0x1000059C8, symSize: 0x2C }
  - { offsetInCU: 0x129C4, offset: 0x129C4, size: 0x8, addend: 0x0, symName: __ZNSt3__19allocatorIP4NodeEC2B7v160006Ev, symObjAddr: 0x3134, symBinAddr: 0x1000059F4, symSize: 0x2C }
  - { offsetInCU: 0x129ED, offset: 0x129ED, size: 0x8, addend: 0x0, symName: __ZNSt3__116__non_trivial_ifILb1ENS_9allocatorIP4NodeEEEC2B7v160006Ev, symObjAddr: 0x3160, symBinAddr: 0x100005A20, symSize: 0x14 }
  - { offsetInCU: 0x12A16, offset: 0x12A16, size: 0x8, addend: 0x0, symName: __ZNSt3__16vectorINS0_I10LinkedListNS_9allocatorIS1_EEEENS2_IS4_EEEC2B7v160006Ev, symObjAddr: 0x3174, symBinAddr: 0x100005A34, symSize: 0x58 }
  - { offsetInCU: 0x12A3F, offset: 0x12A3F, size: 0x8, addend: 0x0, symName: __ZNSt3__117__compressed_pairIPNS_6vectorI10LinkedListNS_9allocatorIS2_EEEENS3_IS5_EEEC1B7v160006IDnNS_18__default_init_tagEEEOT_OT0_, symObjAddr: 0x31CC, symBinAddr: 0x100005A8C, symSize: 0x3C }
  - { offsetInCU: 0x12A96, offset: 0x12A96, size: 0x8, addend: 0x0, symName: __ZNSt3__117__compressed_pairIPNS_6vectorI10LinkedListNS_9allocatorIS2_EEEENS3_IS5_EEEC2B7v160006IDnNS_18__default_init_tagEEEOT_OT0_, symObjAddr: 0x3218, symBinAddr: 0x100005AD8, symSize: 0x40 }
  - { offsetInCU: 0x12AED, offset: 0x12AED, size: 0x8, addend: 0x0, symName: __ZNSt3__122__compressed_pair_elemIPNS_6vectorI10LinkedListNS_9allocatorIS2_EEEELi0ELb0EEC2B7v160006IDnvEEOT_, symObjAddr: 0x3258, symBinAddr: 0x100005B18, symSize: 0x1C }
  - { offsetInCU: 0x12B2E, offset: 0x12B2E, size: 0x8, addend: 0x0, symName: __ZNSt3__122__compressed_pair_elemINS_9allocatorINS_6vectorI10LinkedListNS1_IS3_EEEEEELi1ELb1EEC2B7v160006ENS_18__default_init_tagE, symObjAddr: 0x3274, symBinAddr: 0x100005B34, symSize: 0x2C }
  - { offsetInCU: 0x12B62, offset: 0x12B62, size: 0x8, addend: 0x0, symName: __ZNSt3__19allocatorINS_6vectorI10LinkedListNS0_IS2_EEEEEC2B7v160006Ev, symObjAddr: 0x32A0, symBinAddr: 0x100005B60, symSize: 0x2C }
  - { offsetInCU: 0x12B8B, offset: 0x12B8B, size: 0x8, addend: 0x0, symName: __ZNSt3__116__non_trivial_ifILb1ENS_9allocatorINS_6vectorI10LinkedListNS1_IS3_EEEEEEEC2B7v160006Ev, symObjAddr: 0x32CC, symBinAddr: 0x100005B8C, symSize: 0x14 }
  - { offsetInCU: 0x12BB4, offset: 0x12BB4, size: 0x8, addend: 0x0, symName: __ZNKSt3__16vectorIP4NodeNS_9allocatorIS2_EEE4sizeB7v160006Ev, symObjAddr: 0x32E0, symBinAddr: 0x100005BA0, symSize: 0x28 }
  - { offsetInCU: 0x12BD8, offset: 0x12BD8, size: 0x8, addend: 0x0, symName: __ZNSt3__16vectorIP4NodeNS_9allocatorIS2_EEE8__appendEmRKS2_, symObjAddr: 0x3308, symBinAddr: 0x100005BC8, symSize: 0x114 }
  - { offsetInCU: 0x12C41, offset: 0x12C41, size: 0x8, addend: 0x0, symName: __ZNSt3__16vectorIP4NodeNS_9allocatorIS2_EEE17__destruct_at_endB7v160006EPS2_, symObjAddr: 0x341C, symBinAddr: 0x100005CDC, symSize: 0x60 }
  - { offsetInCU: 0x12C84, offset: 0x12C84, size: 0x8, addend: 0x0, symName: __ZNSt3__16vectorIP4NodeNS_9allocatorIS2_EEE9__end_capB7v160006Ev, symObjAddr: 0x347C, symBinAddr: 0x100005D3C, symSize: 0x28 }
  - { offsetInCU: 0x12CA8, offset: 0x12CA8, size: 0x8, addend: 0x0, symName: __ZNSt3__16vectorIP4NodeNS_9allocatorIS2_EEE18__construct_at_endEmRKS2_, symObjAddr: 0x34A4, symBinAddr: 0x100005D64, symSize: 0xD0 }
  - { offsetInCU: 0x12D29, offset: 0x12D29, size: 0x8, addend: 0x0, symName: __ZNSt3__16vectorIP4NodeNS_9allocatorIS2_EEE7__allocB7v160006Ev, symObjAddr: 0x3574, symBinAddr: 0x100005E34, symSize: 0x28 }
  - { offsetInCU: 0x12D4D, offset: 0x12D4D, size: 0x8, addend: 0x0, symName: __ZNKSt3__16vectorIP4NodeNS_9allocatorIS2_EEE11__recommendB7v160006Em, symObjAddr: 0x359C, symBinAddr: 0x100005E5C, symSize: 0xB4 }
  - { offsetInCU: 0x12DA1, offset: 0x12DA1, size: 0x8, addend: 0x0, symName: __ZNSt3__114__split_bufferIP4NodeRNS_9allocatorIS2_EEEC1EmmS5_, symObjAddr: 0x3650, symBinAddr: 0x100005F10, symSize: 0x44 }
  - { offsetInCU: 0x12DF6, offset: 0x12DF6, size: 0x8, addend: 0x0, symName: __ZNSt3__114__split_bufferIP4NodeRNS_9allocatorIS2_EEE18__construct_at_endEmRKS2_, symObjAddr: 0x3694, symBinAddr: 0x100005F54, symSize: 0xBC }
  - { offsetInCU: 0x12E46, offset: 0x12E46, size: 0x8, addend: 0x0, symName: __ZNSt3__114__split_bufferIP4NodeRNS_9allocatorIS2_EEED1Ev, symObjAddr: 0x3868, symBinAddr: 0x100006128, symSize: 0x2C }
  - { offsetInCU: 0x12E71, offset: 0x12E71, size: 0x8, addend: 0x0, symName: __ZNSt3__117__compressed_pairIPP4NodeNS_9allocatorIS2_EEE5firstB7v160006Ev, symObjAddr: 0x3894, symBinAddr: 0x100006154, symSize: 0x24 }
  - { offsetInCU: 0x12E96, offset: 0x12E96, size: 0x8, addend: 0x0, symName: __ZNSt3__122__compressed_pair_elemIPP4NodeLi0ELb0EE5__getB7v160006Ev, symObjAddr: 0x38B8, symBinAddr: 0x100006178, symSize: 0x14 }
  - { offsetInCU: 0x12ED4, offset: 0x12ED4, size: 0x8, addend: 0x0, symName: __ZNSt3__16vectorIP4NodeNS_9allocatorIS2_EEE21_ConstructTransactionC1B7v160006ERS5_m, symObjAddr: 0x38CC, symBinAddr: 0x10000618C, symSize: 0x3C }
  - { offsetInCU: 0x12F1B, offset: 0x12F1B, size: 0x8, addend: 0x0, symName: __ZNSt3__116allocator_traitsINS_9allocatorIP4NodeEEE9constructB7v160006IS3_JRKS3_EvEEvRS4_PT_DpOT0_, symObjAddr: 0x3908, symBinAddr: 0x1000061C8, symSize: 0x34 }
  - { offsetInCU: 0x12F72, offset: 0x12F72, size: 0x8, addend: 0x0, symName: __ZNSt3__16vectorIP4NodeNS_9allocatorIS2_EEE21_ConstructTransactionD1B7v160006Ev, symObjAddr: 0x3950, symBinAddr: 0x100006210, symSize: 0x2C }
  - { offsetInCU: 0x12F9B, offset: 0x12F9B, size: 0x8, addend: 0x0, symName: __ZNSt3__16vectorIP4NodeNS_9allocatorIS2_EEE21_ConstructTransactionC2B7v160006ERS5_m, symObjAddr: 0x397C, symBinAddr: 0x10000623C, symSize: 0x44 }
  - { offsetInCU: 0x12FE2, offset: 0x12FE2, size: 0x8, addend: 0x0, symName: __ZNSt3__19allocatorIP4NodeE9constructB7v160006IS2_JRKS2_EEEvPT_DpOT0_, symObjAddr: 0x39C0, symBinAddr: 0x100006280, symSize: 0x28 }
  - { offsetInCU: 0x13037, offset: 0x13037, size: 0x8, addend: 0x0, symName: __ZNSt3__16vectorIP4NodeNS_9allocatorIS2_EEE21_ConstructTransactionD2B7v160006Ev, symObjAddr: 0x39E8, symBinAddr: 0x1000062A8, symSize: 0x20 }
  - { offsetInCU: 0x13060, offset: 0x13060, size: 0x8, addend: 0x0, symName: __ZNSt3__117__compressed_pairIPP4NodeNS_9allocatorIS2_EEE6secondB7v160006Ev, symObjAddr: 0x3A08, symBinAddr: 0x1000062C8, symSize: 0x24 }
  - { offsetInCU: 0x13085, offset: 0x13085, size: 0x8, addend: 0x0, symName: __ZNSt3__122__compressed_pair_elemINS_9allocatorIP4NodeEELi1ELb1EE5__getB7v160006Ev, symObjAddr: 0x3A2C, symBinAddr: 0x1000062EC, symSize: 0x14 }
  - { offsetInCU: 0x130A9, offset: 0x130A9, size: 0x8, addend: 0x0, symName: __ZNKSt3__16vectorIP4NodeNS_9allocatorIS2_EEE8max_sizeEv, symObjAddr: 0x3A40, symBinAddr: 0x100006300, symSize: 0x60 }
  - { offsetInCU: 0x130D0, offset: 0x130D0, size: 0x8, addend: 0x0, symName: __ZNKSt3__16vectorIP4NodeNS_9allocatorIS2_EEE20__throw_length_errorB7v160006Ev, symObjAddr: 0x3AA0, symBinAddr: 0x100006360, symSize: 0x1C }
  - { offsetInCU: 0x130F5, offset: 0x130F5, size: 0x8, addend: 0x0, symName: __ZNKSt3__16vectorIP4NodeNS_9allocatorIS2_EEE8capacityB7v160006Ev, symObjAddr: 0x3ABC, symBinAddr: 0x10000637C, symSize: 0x40 }
  - { offsetInCU: 0x13124, offset: 0x13124, size: 0x8, addend: 0x0, symName: __ZNSt3__116allocator_traitsINS_9allocatorIP4NodeEEE8max_sizeB7v160006IS4_vEEmRKS4_, symObjAddr: 0x3B54, symBinAddr: 0x100006414, symSize: 0x24 }
  - { offsetInCU: 0x13152, offset: 0x13152, size: 0x8, addend: 0x0, symName: __ZNKSt3__16vectorIP4NodeNS_9allocatorIS2_EEE7__allocB7v160006Ev, symObjAddr: 0x3B78, symBinAddr: 0x100006438, symSize: 0x28 }
  - { offsetInCU: 0x13177, offset: 0x13177, size: 0x8, addend: 0x0, symName: __ZNSt3__114numeric_limitsIlE3maxB7v160006Ev, symObjAddr: 0x3BA0, symBinAddr: 0x100006460, symSize: 0x14 }
  - { offsetInCU: 0x1319F, offset: 0x1319F, size: 0x8, addend: 0x0, symName: __ZNKSt3__16__lessImmEclB7v160006ERKmS3_, symObjAddr: 0x3C08, symBinAddr: 0x1000064C8, symSize: 0x34 }
  - { offsetInCU: 0x131E0, offset: 0x131E0, size: 0x8, addend: 0x0, symName: __ZNKSt3__19allocatorIP4NodeE8max_sizeB7v160006Ev, symObjAddr: 0x3C3C, symBinAddr: 0x1000064FC, symSize: 0x14 }
  - { offsetInCU: 0x13205, offset: 0x13205, size: 0x8, addend: 0x0, symName: __ZNKSt3__117__compressed_pairIPP4NodeNS_9allocatorIS2_EEE6secondB7v160006Ev, symObjAddr: 0x3C50, symBinAddr: 0x100006510, symSize: 0x24 }
  - { offsetInCU: 0x1322A, offset: 0x1322A, size: 0x8, addend: 0x0, symName: __ZNKSt3__122__compressed_pair_elemINS_9allocatorIP4NodeEELi1ELb1EE5__getB7v160006Ev, symObjAddr: 0x3C74, symBinAddr: 0x100006534, symSize: 0x14 }
  - { offsetInCU: 0x1324F, offset: 0x1324F, size: 0x8, addend: 0x0, symName: __ZNSt3__123__libcpp_numeric_limitsIlLb1EE3maxB7v160006Ev, symObjAddr: 0x3C88, symBinAddr: 0x100006548, symSize: 0x8 }
  - { offsetInCU: 0x13263, offset: 0x13263, size: 0x8, addend: 0x0, symName: __ZNSt12length_errorC1B7v160006EPKc, symObjAddr: 0x3CF4, symBinAddr: 0x1000065B4, symSize: 0x34 }
  - { offsetInCU: 0x1329A, offset: 0x1329A, size: 0x8, addend: 0x0, symName: __ZNSt12length_errorC2B7v160006EPKc, symObjAddr: 0x3D28, symBinAddr: 0x1000065E8, symSize: 0x4C }
  - { offsetInCU: 0x132D1, offset: 0x132D1, size: 0x8, addend: 0x0, symName: __ZNKSt3__16vectorIP4NodeNS_9allocatorIS2_EEE9__end_capB7v160006Ev, symObjAddr: 0x3D74, symBinAddr: 0x100006634, symSize: 0x28 }
  - { offsetInCU: 0x132F6, offset: 0x132F6, size: 0x8, addend: 0x0, symName: __ZNKSt3__117__compressed_pairIPP4NodeNS_9allocatorIS2_EEE5firstB7v160006Ev, symObjAddr: 0x3D9C, symBinAddr: 0x10000665C, symSize: 0x24 }
  - { offsetInCU: 0x1331B, offset: 0x1331B, size: 0x8, addend: 0x0, symName: __ZNKSt3__122__compressed_pair_elemIPP4NodeLi0ELb0EE5__getB7v160006Ev, symObjAddr: 0x3DC0, symBinAddr: 0x100006680, symSize: 0x14 }
  - { offsetInCU: 0x13340, offset: 0x13340, size: 0x8, addend: 0x0, symName: __ZNSt3__114__split_bufferIP4NodeRNS_9allocatorIS2_EEEC2EmmS5_, symObjAddr: 0x3E28, symBinAddr: 0x1000066E8, symSize: 0xD4 }
  - { offsetInCU: 0x133B3, offset: 0x133B3, size: 0x8, addend: 0x0, symName: __ZNSt3__117__compressed_pairIPP4NodeRNS_9allocatorIS2_EEEC1B7v160006IDnS6_EEOT_OT0_, symObjAddr: 0x3EFC, symBinAddr: 0x1000067BC, symSize: 0x3C }
  - { offsetInCU: 0x1340A, offset: 0x1340A, size: 0x8, addend: 0x0, symName: __ZNSt3__114__split_bufferIP4NodeRNS_9allocatorIS2_EEE7__allocB7v160006Ev, symObjAddr: 0x3F78, symBinAddr: 0x100006838, symSize: 0x28 }
  - { offsetInCU: 0x1342F, offset: 0x1342F, size: 0x8, addend: 0x0, symName: __ZNSt3__114__split_bufferIP4NodeRNS_9allocatorIS2_EEE9__end_capB7v160006Ev, symObjAddr: 0x3FA0, symBinAddr: 0x100006860, symSize: 0x28 }
  - { offsetInCU: 0x13454, offset: 0x13454, size: 0x8, addend: 0x0, symName: __ZNSt3__117__compressed_pairIPP4NodeRNS_9allocatorIS2_EEEC2B7v160006IDnS6_EEOT_OT0_, symObjAddr: 0x3FC8, symBinAddr: 0x100006888, symSize: 0x48 }
  - { offsetInCU: 0x134AB, offset: 0x134AB, size: 0x8, addend: 0x0, symName: __ZNSt3__122__compressed_pair_elemIRNS_9allocatorIP4NodeEELi1ELb0EEC2B7v160006IS5_vEEOT_, symObjAddr: 0x4010, symBinAddr: 0x1000068D0, symSize: 0x20 }
  - { offsetInCU: 0x134EC, offset: 0x134EC, size: 0x8, addend: 0x0, symName: __ZNSt3__19allocatorIP4NodeE8allocateB7v160006Em, symObjAddr: 0x4030, symBinAddr: 0x1000068F0, symSize: 0x58 }
  - { offsetInCU: 0x1351F, offset: 0x1351F, size: 0x8, addend: 0x0, symName: __ZNSt3__117__compressed_pairIPP4NodeRNS_9allocatorIS2_EEE6secondB7v160006Ev, symObjAddr: 0x4108, symBinAddr: 0x1000069C8, symSize: 0x28 }
  - { offsetInCU: 0x13544, offset: 0x13544, size: 0x8, addend: 0x0, symName: __ZNSt3__122__compressed_pair_elemIRNS_9allocatorIP4NodeEELi1ELb0EE5__getB7v160006Ev, symObjAddr: 0x4130, symBinAddr: 0x1000069F0, symSize: 0x18 }
  - { offsetInCU: 0x13569, offset: 0x13569, size: 0x8, addend: 0x0, symName: __ZNSt3__117__compressed_pairIPP4NodeRNS_9allocatorIS2_EEE5firstB7v160006Ev, symObjAddr: 0x4148, symBinAddr: 0x100006A08, symSize: 0x24 }
  - { offsetInCU: 0x13598, offset: 0x13598, size: 0x8, addend: 0x0, symName: __ZNSt3__114__split_bufferIP4NodeRNS_9allocatorIS2_EEE21_ConstructTransactionC1B7v160006EPPS2_m, symObjAddr: 0x416C, symBinAddr: 0x100006A2C, symSize: 0x3C }
  - { offsetInCU: 0x135DD, offset: 0x135DD, size: 0x8, addend: 0x0, symName: __ZNSt3__114__split_bufferIP4NodeRNS_9allocatorIS2_EEE21_ConstructTransactionD1B7v160006Ev, symObjAddr: 0x41A8, symBinAddr: 0x100006A68, symSize: 0x2C }
  - { offsetInCU: 0x13606, offset: 0x13606, size: 0x8, addend: 0x0, symName: __ZNSt3__114__split_bufferIP4NodeRNS_9allocatorIS2_EEE21_ConstructTransactionC2B7v160006EPPS2_m, symObjAddr: 0x41D4, symBinAddr: 0x100006A94, symSize: 0x44 }
  - { offsetInCU: 0x1364B, offset: 0x1364B, size: 0x8, addend: 0x0, symName: __ZNSt3__114__split_bufferIP4NodeRNS_9allocatorIS2_EEE21_ConstructTransactionD2B7v160006Ev, symObjAddr: 0x4218, symBinAddr: 0x100006AD8, symSize: 0x20 }
  - { offsetInCU: 0x13674, offset: 0x13674, size: 0x8, addend: 0x0, symName: __ZNKSt3__16vectorIP4NodeNS_9allocatorIS2_EEE17__annotate_deleteB7v160006Ev, symObjAddr: 0x4238, symBinAddr: 0x100006AF8, symSize: 0xB8 }
  - { offsetInCU: 0x13699, offset: 0x13699, size: 0x8, addend: 0x0, symName: __ZNSt3__116reverse_iteratorIPP4NodeEC1B7v160006ES3_, symObjAddr: 0x4368, symBinAddr: 0x100006C28, symSize: 0x34 }
  - { offsetInCU: 0x136D0, offset: 0x136D0, size: 0x8, addend: 0x0, symName: __ZNKSt3__116reverse_iteratorIPP4NodeE4baseB7v160006Ev, symObjAddr: 0x439C, symBinAddr: 0x100006C5C, symSize: 0x18 }
  - { offsetInCU: 0x136F5, offset: 0x136F5, size: 0x8, addend: 0x0, symName: __ZNKSt3__16vectorIP4NodeNS_9allocatorIS2_EEE14__annotate_newB7v160006Em, symObjAddr: 0x43F0, symBinAddr: 0x100006CB0, symSize: 0xAC }
  - { offsetInCU: 0x13729, offset: 0x13729, size: 0x8, addend: 0x0, symName: __ZNKSt3__16vectorIP4NodeNS_9allocatorIS2_EEE31__annotate_contiguous_containerB7v160006EPKvS7_S7_S7_, symObjAddr: 0x44AC, symBinAddr: 0x100006D6C, symSize: 0x20 }
  - { offsetInCU: 0x1377A, offset: 0x1377A, size: 0x8, addend: 0x0, symName: __ZNKSt3__16vectorIP4NodeNS_9allocatorIS2_EEE4dataB7v160006Ev, symObjAddr: 0x44CC, symBinAddr: 0x100006D8C, symSize: 0x28 }
  - { offsetInCU: 0x137C2, offset: 0x137C2, size: 0x8, addend: 0x0, symName: __ZNKSt3__111__move_loopINS_17_ClassicAlgPolicyEEclB7v160006INS_16reverse_iteratorIPP4NodeEES8_S8_EENS_4pairIT_T1_EESA_T0_SB_, symObjAddr: 0x47E4, symBinAddr: 0x1000070A4, symSize: 0xA0 }
  - { offsetInCU: 0x13831, offset: 0x13831, size: 0x8, addend: 0x0, symName: __ZNSt3__18_IterOpsINS_17_ClassicAlgPolicyEE11__iter_moveB7v160006IRNS_16reverse_iteratorIPP4NodeEEEENS_9enable_ifIXsr12is_referenceIDTdeclsr3stdE7declvalIRT_EEEEE5valueEDTclsr3stdE4movedeclsr3stdE7declvalISC_EEEEE4typeEOSB_, symObjAddr: 0x4A18, symBinAddr: 0x1000072D8, symSize: 0x28 }
  - { offsetInCU: 0x1385D, offset: 0x1385D, size: 0x8, addend: 0x0, symName: __ZNKSt3__116reverse_iteratorIPP4NodeEdeB7v160006Ev, symObjAddr: 0x4A40, symBinAddr: 0x100007300, symSize: 0x28 }
  - { offsetInCU: 0x13890, offset: 0x13890, size: 0x8, addend: 0x0, symName: __ZNSt3__116reverse_iteratorIPP4NodeEppB7v160006Ev, symObjAddr: 0x4A68, symBinAddr: 0x100007328, symSize: 0x20 }
  - { offsetInCU: 0x138B5, offset: 0x138B5, size: 0x8, addend: 0x0, symName: __ZNSt3__18_IterOpsINS_17_ClassicAlgPolicyEE25__validate_iter_referenceB7v160006IRNS_16reverse_iteratorIPP4NodeEEEEvv, symObjAddr: 0x4A88, symBinAddr: 0x100007348, symSize: 0x4 }
  - { offsetInCU: 0x138D3, offset: 0x138D3, size: 0x8, addend: 0x0, symName: __ZNSt3__118__unwrap_iter_implINS_16reverse_iteratorIPP4NodeEELb0EE8__unwrapB7v160006ES5_, symObjAddr: 0x4A8C, symBinAddr: 0x10000734C, symSize: 0x24 }
  - { offsetInCU: 0x138FB, offset: 0x138FB, size: 0x8, addend: 0x0, symName: __ZNSt3__14pairINS_16reverse_iteratorIPP4NodeEES5_EC1B7v160006IS5_S5_LPv0EEEOT_OT0_, symObjAddr: 0x4AB0, symBinAddr: 0x100007370, symSize: 0x3C }
  - { offsetInCU: 0x13958, offset: 0x13958, size: 0x8, addend: 0x0, symName: __ZNSt3__14pairINS_16reverse_iteratorIPP4NodeEES5_EC2B7v160006IS5_S5_LPv0EEEOT_OT0_, symObjAddr: 0x4AEC, symBinAddr: 0x1000073AC, symSize: 0x34 }
  - { offsetInCU: 0x139B5, offset: 0x139B5, size: 0x8, addend: 0x0, symName: __ZNSt3__118__unwrap_iter_implINS_16reverse_iteratorIPP4NodeEELb0EE8__rewrapB7v160006ES5_S5_, symObjAddr: 0x4B20, symBinAddr: 0x1000073E0, symSize: 0x2C }
  - { offsetInCU: 0x139E3, offset: 0x139E3, size: 0x8, addend: 0x0, symName: __ZNSt3__116reverse_iteratorIPP4NodeEC2B7v160006ES3_, symObjAddr: 0x4B4C, symBinAddr: 0x10000740C, symSize: 0x28 }
  - { offsetInCU: 0x13A1A, offset: 0x13A1A, size: 0x8, addend: 0x0, symName: __ZNSt3__114__split_bufferIP4NodeRNS_9allocatorIS2_EEED2Ev, symObjAddr: 0x4B74, symBinAddr: 0x100007434, symSize: 0x8C }
  - { offsetInCU: 0x13A45, offset: 0x13A45, size: 0x8, addend: 0x0, symName: __ZNSt3__114__split_bufferIP4NodeRNS_9allocatorIS2_EEE5clearB7v160006Ev, symObjAddr: 0x4C00, symBinAddr: 0x1000074C0, symSize: 0x28 }
  - { offsetInCU: 0x13A6A, offset: 0x13A6A, size: 0x8, addend: 0x0, symName: __ZNSt3__116allocator_traitsINS_9allocatorIP4NodeEEE10deallocateB7v160006ERS4_PS3_m, symObjAddr: 0x4C28, symBinAddr: 0x1000074E8, symSize: 0x34 }
  - { offsetInCU: 0x13AAC, offset: 0x13AAC, size: 0x8, addend: 0x0, symName: __ZNKSt3__114__split_bufferIP4NodeRNS_9allocatorIS2_EEE8capacityB7v160006Ev, symObjAddr: 0x4C5C, symBinAddr: 0x10000751C, symSize: 0x40 }
  - { offsetInCU: 0x13AD1, offset: 0x13AD1, size: 0x8, addend: 0x0, symName: __ZNSt3__114__split_bufferIP4NodeRNS_9allocatorIS2_EEE17__destruct_at_endB7v160006EPS2_, symObjAddr: 0x4C9C, symBinAddr: 0x10000755C, symSize: 0x2C }
  - { offsetInCU: 0x13B03, offset: 0x13B03, size: 0x8, addend: 0x0, symName: __ZNSt3__114__split_bufferIP4NodeRNS_9allocatorIS2_EEE17__destruct_at_endB7v160006EPS2_NS_17integral_constantIbLb0EEE, symObjAddr: 0x4CC8, symBinAddr: 0x100007588, symSize: 0x80 }
  - { offsetInCU: 0x13B43, offset: 0x13B43, size: 0x8, addend: 0x0, symName: __ZNSt3__116allocator_traitsINS_9allocatorIP4NodeEEE7destroyB7v160006IS3_vEEvRS4_PT_, symObjAddr: 0x4D48, symBinAddr: 0x100007608, symSize: 0x2C }
  - { offsetInCU: 0x13B80, offset: 0x13B80, size: 0x8, addend: 0x0, symName: __ZNSt3__19allocatorIP4NodeE7destroyB7v160006EPS2_, symObjAddr: 0x4D74, symBinAddr: 0x100007634, symSize: 0x14 }
  - { offsetInCU: 0x13BB3, offset: 0x13BB3, size: 0x8, addend: 0x0, symName: __ZNSt3__19allocatorIP4NodeE10deallocateB7v160006EPS2_m, symObjAddr: 0x4D88, symBinAddr: 0x100007648, symSize: 0x40 }
  - { offsetInCU: 0x13BF4, offset: 0x13BF4, size: 0x8, addend: 0x0, symName: __ZNKSt3__114__split_bufferIP4NodeRNS_9allocatorIS2_EEE9__end_capB7v160006Ev, symObjAddr: 0x4E44, symBinAddr: 0x100007704, symSize: 0x28 }
  - { offsetInCU: 0x13C19, offset: 0x13C19, size: 0x8, addend: 0x0, symName: __ZNKSt3__117__compressed_pairIPP4NodeRNS_9allocatorIS2_EEE5firstB7v160006Ev, symObjAddr: 0x4E6C, symBinAddr: 0x10000772C, symSize: 0x24 }
  - { offsetInCU: 0x13C3E, offset: 0x13C3E, size: 0x8, addend: 0x0, symName: __ZNSt3__16vectorIP4NodeNS_9allocatorIS2_EEE27__invalidate_iterators_pastB7v160006EPS2_, symObjAddr: 0x4E90, symBinAddr: 0x100007750, symSize: 0x14 }
  - { offsetInCU: 0x13C74, offset: 0x13C74, size: 0x8, addend: 0x0, symName: __ZNSt3__16vectorIP4NodeNS_9allocatorIS2_EEE22__base_destruct_at_endB7v160006EPS2_, symObjAddr: 0x4EA4, symBinAddr: 0x100007764, symSize: 0x8C }
  - { offsetInCU: 0x13CB7, offset: 0x13CB7, size: 0x8, addend: 0x0, symName: __ZNKSt3__16vectorIP4NodeNS_9allocatorIS2_EEE17__annotate_shrinkB7v160006Em, symObjAddr: 0x4F30, symBinAddr: 0x1000077F0, symSize: 0xB4 }
  - { offsetInCU: 0x13CEB, offset: 0x13CEB, size: 0x8, addend: 0x0, symName: __ZNKSt3__16vectorINS0_I10LinkedListNS_9allocatorIS1_EEEENS2_IS4_EEE4sizeB7v160006Ev, symObjAddr: 0x4FE4, symBinAddr: 0x1000078A4, symSize: 0x28 }
  - { offsetInCU: 0x13D0F, offset: 0x13D0F, size: 0x8, addend: 0x0, symName: __ZNSt3__16vectorINS0_I10LinkedListNS_9allocatorIS1_EEEENS2_IS4_EEE8__appendEm, symObjAddr: 0x500C, symBinAddr: 0x1000078CC, symSize: 0x108 }
  - { offsetInCU: 0x13D69, offset: 0x13D69, size: 0x8, addend: 0x0, symName: __ZNSt3__16vectorINS0_I10LinkedListNS_9allocatorIS1_EEEENS2_IS4_EEE17__destruct_at_endB7v160006EPS4_, symObjAddr: 0x5114, symBinAddr: 0x1000079D4, symSize: 0x60 }
  - { offsetInCU: 0x13DAC, offset: 0x13DAC, size: 0x8, addend: 0x0, symName: __ZNSt3__16vectorINS0_I10LinkedListNS_9allocatorIS1_EEEENS2_IS4_EEE9__end_capB7v160006Ev, symObjAddr: 0x5174, symBinAddr: 0x100007A34, symSize: 0x28 }
  - { offsetInCU: 0x13DD0, offset: 0x13DD0, size: 0x8, addend: 0x0, symName: __ZNSt3__16vectorINS0_I10LinkedListNS_9allocatorIS1_EEEENS2_IS4_EEE18__construct_at_endEm, symObjAddr: 0x519C, symBinAddr: 0x100007A5C, symSize: 0xC8 }
  - { offsetInCU: 0x13E42, offset: 0x13E42, size: 0x8, addend: 0x0, symName: __ZNSt3__16vectorINS0_I10LinkedListNS_9allocatorIS1_EEEENS2_IS4_EEE7__allocB7v160006Ev, symObjAddr: 0x5264, symBinAddr: 0x100007B24, symSize: 0x28 }
  - { offsetInCU: 0x13E66, offset: 0x13E66, size: 0x8, addend: 0x0, symName: __ZNKSt3__16vectorINS0_I10LinkedListNS_9allocatorIS1_EEEENS2_IS4_EEE11__recommendB7v160006Em, symObjAddr: 0x528C, symBinAddr: 0x100007B4C, symSize: 0xB4 }
  - { offsetInCU: 0x13EBA, offset: 0x13EBA, size: 0x8, addend: 0x0, symName: __ZNSt3__114__split_bufferINS_6vectorI10LinkedListNS_9allocatorIS2_EEEERNS3_IS5_EEEC1EmmS7_, symObjAddr: 0x5340, symBinAddr: 0x100007C00, symSize: 0x44 }
  - { offsetInCU: 0x13F0F, offset: 0x13F0F, size: 0x8, addend: 0x0, symName: __ZNSt3__114__split_bufferINS_6vectorI10LinkedListNS_9allocatorIS2_EEEERNS3_IS5_EEE18__construct_at_endEm, symObjAddr: 0x5384, symBinAddr: 0x100007C44, symSize: 0xB4 }
  - { offsetInCU: 0x13F51, offset: 0x13F51, size: 0x8, addend: 0x0, symName: __ZNSt3__114__split_bufferINS_6vectorI10LinkedListNS_9allocatorIS2_EEEERNS3_IS5_EEED1Ev, symObjAddr: 0x5550, symBinAddr: 0x100007E10, symSize: 0x2C }
  - { offsetInCU: 0x13F7C, offset: 0x13F7C, size: 0x8, addend: 0x0, symName: __ZNSt3__117__compressed_pairIPNS_6vectorI10LinkedListNS_9allocatorIS2_EEEENS3_IS5_EEE5firstB7v160006Ev, symObjAddr: 0x557C, symBinAddr: 0x100007E3C, symSize: 0x24 }
  - { offsetInCU: 0x13FA1, offset: 0x13FA1, size: 0x8, addend: 0x0, symName: __ZNSt3__122__compressed_pair_elemIPNS_6vectorI10LinkedListNS_9allocatorIS2_EEEELi0ELb0EE5__getB7v160006Ev, symObjAddr: 0x55A0, symBinAddr: 0x100007E60, symSize: 0x14 }
  - { offsetInCU: 0x13FDF, offset: 0x13FDF, size: 0x8, addend: 0x0, symName: __ZNSt3__16vectorINS0_I10LinkedListNS_9allocatorIS1_EEEENS2_IS4_EEE21_ConstructTransactionC1B7v160006ERS6_m, symObjAddr: 0x55B4, symBinAddr: 0x100007E74, symSize: 0x3C }
  - { offsetInCU: 0x14026, offset: 0x14026, size: 0x8, addend: 0x0, symName: __ZNSt3__116allocator_traitsINS_9allocatorINS_6vectorI10LinkedListNS1_IS3_EEEEEEE9constructB7v160006IS5_JEvEEvRS6_PT_DpOT0_, symObjAddr: 0x55F0, symBinAddr: 0x100007EB0, symSize: 0x2C }
  - { offsetInCU: 0x14068, offset: 0x14068, size: 0x8, addend: 0x0, symName: __ZNSt3__16vectorINS0_I10LinkedListNS_9allocatorIS1_EEEENS2_IS4_EEE21_ConstructTransactionD1B7v160006Ev, symObjAddr: 0x5630, symBinAddr: 0x100007EF0, symSize: 0x2C }
  - { offsetInCU: 0x14091, offset: 0x14091, size: 0x8, addend: 0x0, symName: __ZNSt3__16vectorINS0_I10LinkedListNS_9allocatorIS1_EEEENS2_IS4_EEE21_ConstructTransactionC2B7v160006ERS6_m, symObjAddr: 0x565C, symBinAddr: 0x100007F1C, symSize: 0x4C }
  - { offsetInCU: 0x140D8, offset: 0x140D8, size: 0x8, addend: 0x0, symName: __ZNSt3__19allocatorINS_6vectorI10LinkedListNS0_IS2_EEEEE9constructB7v160006IS4_JEEEvPT_DpOT0_, symObjAddr: 0x56A8, symBinAddr: 0x100007F68, symSize: 0x28 }
  - { offsetInCU: 0x14119, offset: 0x14119, size: 0x8, addend: 0x0, symName: __ZNSt3__16vectorI10LinkedListNS_9allocatorIS1_EEEC1B7v160006Ev, symObjAddr: 0x56D0, symBinAddr: 0x100007F90, symSize: 0x2C }
  - { offsetInCU: 0x14142, offset: 0x14142, size: 0x8, addend: 0x0, symName: __ZNSt3__16vectorI10LinkedListNS_9allocatorIS1_EEEC2B7v160006Ev, symObjAddr: 0x56FC, symBinAddr: 0x100007FBC, symSize: 0x58 }
  - { offsetInCU: 0x1416B, offset: 0x1416B, size: 0x8, addend: 0x0, symName: __ZNSt3__117__compressed_pairIP10LinkedListNS_9allocatorIS1_EEEC1B7v160006IDnNS_18__default_init_tagEEEOT_OT0_, symObjAddr: 0x5754, symBinAddr: 0x100008014, symSize: 0x3C }
  - { offsetInCU: 0x141C2, offset: 0x141C2, size: 0x8, addend: 0x0, symName: __ZNSt3__117__compressed_pairIP10LinkedListNS_9allocatorIS1_EEEC2B7v160006IDnNS_18__default_init_tagEEEOT_OT0_, symObjAddr: 0x57A0, symBinAddr: 0x100008060, symSize: 0x40 }
  - { offsetInCU: 0x14219, offset: 0x14219, size: 0x8, addend: 0x0, symName: __ZNSt3__122__compressed_pair_elemIP10LinkedListLi0ELb0EEC2B7v160006IDnvEEOT_, symObjAddr: 0x57E0, symBinAddr: 0x1000080A0, symSize: 0x1C }
  - { offsetInCU: 0x1425A, offset: 0x1425A, size: 0x8, addend: 0x0, symName: __ZNSt3__122__compressed_pair_elemINS_9allocatorI10LinkedListEELi1ELb1EEC2B7v160006ENS_18__default_init_tagE, symObjAddr: 0x57FC, symBinAddr: 0x1000080BC, symSize: 0x2C }
  - { offsetInCU: 0x1428E, offset: 0x1428E, size: 0x8, addend: 0x0, symName: __ZNSt3__19allocatorI10LinkedListEC2B7v160006Ev, symObjAddr: 0x5828, symBinAddr: 0x1000080E8, symSize: 0x2C }
  - { offsetInCU: 0x142B7, offset: 0x142B7, size: 0x8, addend: 0x0, symName: __ZNSt3__116__non_trivial_ifILb1ENS_9allocatorI10LinkedListEEEC2B7v160006Ev, symObjAddr: 0x5854, symBinAddr: 0x100008114, symSize: 0x14 }
  - { offsetInCU: 0x142E0, offset: 0x142E0, size: 0x8, addend: 0x0, symName: __ZNSt3__16vectorINS0_I10LinkedListNS_9allocatorIS1_EEEENS2_IS4_EEE21_ConstructTransactionD2B7v160006Ev, symObjAddr: 0x5868, symBinAddr: 0x100008128, symSize: 0x20 }
  - { offsetInCU: 0x14309, offset: 0x14309, size: 0x8, addend: 0x0, symName: __ZNSt3__117__compressed_pairIPNS_6vectorI10LinkedListNS_9allocatorIS2_EEEENS3_IS5_EEE6secondB7v160006Ev, symObjAddr: 0x5888, symBinAddr: 0x100008148, symSize: 0x24 }
  - { offsetInCU: 0x1432E, offset: 0x1432E, size: 0x8, addend: 0x0, symName: __ZNSt3__122__compressed_pair_elemINS_9allocatorINS_6vectorI10LinkedListNS1_IS3_EEEEEELi1ELb1EE5__getB7v160006Ev, symObjAddr: 0x58AC, symBinAddr: 0x10000816C, symSize: 0x14 }
  - { offsetInCU: 0x14352, offset: 0x14352, size: 0x8, addend: 0x0, symName: __ZNKSt3__16vectorINS0_I10LinkedListNS_9allocatorIS1_EEEENS2_IS4_EEE8max_sizeEv, symObjAddr: 0x58C0, symBinAddr: 0x100008180, symSize: 0x60 }
  - { offsetInCU: 0x14379, offset: 0x14379, size: 0x8, addend: 0x0, symName: __ZNKSt3__16vectorINS0_I10LinkedListNS_9allocatorIS1_EEEENS2_IS4_EEE20__throw_length_errorB7v160006Ev, symObjAddr: 0x5920, symBinAddr: 0x1000081E0, symSize: 0x1C }
  - { offsetInCU: 0x1439E, offset: 0x1439E, size: 0x8, addend: 0x0, symName: __ZNKSt3__16vectorINS0_I10LinkedListNS_9allocatorIS1_EEEENS2_IS4_EEE8capacityB7v160006Ev, symObjAddr: 0x593C, symBinAddr: 0x1000081FC, symSize: 0x40 }
  - { offsetInCU: 0x143CD, offset: 0x143CD, size: 0x8, addend: 0x0, symName: __ZNSt3__116allocator_traitsINS_9allocatorINS_6vectorI10LinkedListNS1_IS3_EEEEEEE8max_sizeB7v160006IS6_vEEmRKS6_, symObjAddr: 0x597C, symBinAddr: 0x10000823C, symSize: 0x24 }
  - { offsetInCU: 0x143FB, offset: 0x143FB, size: 0x8, addend: 0x0, symName: __ZNKSt3__16vectorINS0_I10LinkedListNS_9allocatorIS1_EEEENS2_IS4_EEE7__allocB7v160006Ev, symObjAddr: 0x59A0, symBinAddr: 0x100008260, symSize: 0x28 }
  - { offsetInCU: 0x14420, offset: 0x14420, size: 0x8, addend: 0x0, symName: __ZNKSt3__19allocatorINS_6vectorI10LinkedListNS0_IS2_EEEEE8max_sizeB7v160006Ev, symObjAddr: 0x59C8, symBinAddr: 0x100008288, symSize: 0x18 }
  - { offsetInCU: 0x14445, offset: 0x14445, size: 0x8, addend: 0x0, symName: __ZNKSt3__117__compressed_pairIPNS_6vectorI10LinkedListNS_9allocatorIS2_EEEENS3_IS5_EEE6secondB7v160006Ev, symObjAddr: 0x59E0, symBinAddr: 0x1000082A0, symSize: 0x24 }
  - { offsetInCU: 0x1446A, offset: 0x1446A, size: 0x8, addend: 0x0, symName: __ZNKSt3__122__compressed_pair_elemINS_9allocatorINS_6vectorI10LinkedListNS1_IS3_EEEEEELi1ELb1EE5__getB7v160006Ev, symObjAddr: 0x5A04, symBinAddr: 0x1000082C4, symSize: 0x14 }
  - { offsetInCU: 0x1448F, offset: 0x1448F, size: 0x8, addend: 0x0, symName: __ZNKSt3__16vectorINS0_I10LinkedListNS_9allocatorIS1_EEEENS2_IS4_EEE9__end_capB7v160006Ev, symObjAddr: 0x5A18, symBinAddr: 0x1000082D8, symSize: 0x28 }
  - { offsetInCU: 0x144B4, offset: 0x144B4, size: 0x8, addend: 0x0, symName: __ZNKSt3__117__compressed_pairIPNS_6vectorI10LinkedListNS_9allocatorIS2_EEEENS3_IS5_EEE5firstB7v160006Ev, symObjAddr: 0x5A40, symBinAddr: 0x100008300, symSize: 0x24 }
  - { offsetInCU: 0x144D9, offset: 0x144D9, size: 0x8, addend: 0x0, symName: __ZNKSt3__122__compressed_pair_elemIPNS_6vectorI10LinkedListNS_9allocatorIS2_EEEELi0ELb0EE5__getB7v160006Ev, symObjAddr: 0x5A64, symBinAddr: 0x100008324, symSize: 0x14 }
  - { offsetInCU: 0x144FE, offset: 0x144FE, size: 0x8, addend: 0x0, symName: __ZNSt3__114__split_bufferINS_6vectorI10LinkedListNS_9allocatorIS2_EEEERNS3_IS5_EEEC2EmmS7_, symObjAddr: 0x5A78, symBinAddr: 0x100008338, symSize: 0xE0 }
  - { offsetInCU: 0x14571, offset: 0x14571, size: 0x8, addend: 0x0, symName: __ZNSt3__117__compressed_pairIPNS_6vectorI10LinkedListNS_9allocatorIS2_EEEERNS3_IS5_EEEC1B7v160006IDnS8_EEOT_OT0_, symObjAddr: 0x5B58, symBinAddr: 0x100008418, symSize: 0x3C }
  - { offsetInCU: 0x145C8, offset: 0x145C8, size: 0x8, addend: 0x0, symName: __ZNSt3__114__split_bufferINS_6vectorI10LinkedListNS_9allocatorIS2_EEEERNS3_IS5_EEE7__allocB7v160006Ev, symObjAddr: 0x5BD4, symBinAddr: 0x100008494, symSize: 0x28 }
  - { offsetInCU: 0x145ED, offset: 0x145ED, size: 0x8, addend: 0x0, symName: __ZNSt3__114__split_bufferINS_6vectorI10LinkedListNS_9allocatorIS2_EEEERNS3_IS5_EEE9__end_capB7v160006Ev, symObjAddr: 0x5BFC, symBinAddr: 0x1000084BC, symSize: 0x28 }
  - { offsetInCU: 0x14612, offset: 0x14612, size: 0x8, addend: 0x0, symName: __ZNSt3__117__compressed_pairIPNS_6vectorI10LinkedListNS_9allocatorIS2_EEEERNS3_IS5_EEEC2B7v160006IDnS8_EEOT_OT0_, symObjAddr: 0x5C24, symBinAddr: 0x1000084E4, symSize: 0x48 }
  - { offsetInCU: 0x14669, offset: 0x14669, size: 0x8, addend: 0x0, symName: __ZNSt3__122__compressed_pair_elemIRNS_9allocatorINS_6vectorI10LinkedListNS1_IS3_EEEEEELi1ELb0EEC2B7v160006IS7_vEEOT_, symObjAddr: 0x5C6C, symBinAddr: 0x10000852C, symSize: 0x20 }
  - { offsetInCU: 0x146AA, offset: 0x146AA, size: 0x8, addend: 0x0, symName: __ZNSt3__19allocatorINS_6vectorI10LinkedListNS0_IS2_EEEEE8allocateB7v160006Em, symObjAddr: 0x5C8C, symBinAddr: 0x10000854C, symSize: 0x5C }
  - { offsetInCU: 0x146DD, offset: 0x146DD, size: 0x8, addend: 0x0, symName: __ZNSt3__117__compressed_pairIPNS_6vectorI10LinkedListNS_9allocatorIS2_EEEERNS3_IS5_EEE6secondB7v160006Ev, symObjAddr: 0x5CE8, symBinAddr: 0x1000085A8, symSize: 0x28 }
  - { offsetInCU: 0x14702, offset: 0x14702, size: 0x8, addend: 0x0, symName: __ZNSt3__122__compressed_pair_elemIRNS_9allocatorINS_6vectorI10LinkedListNS1_IS3_EEEEEELi1ELb0EE5__getB7v160006Ev, symObjAddr: 0x5D10, symBinAddr: 0x1000085D0, symSize: 0x18 }
  - { offsetInCU: 0x14727, offset: 0x14727, size: 0x8, addend: 0x0, symName: __ZNSt3__117__compressed_pairIPNS_6vectorI10LinkedListNS_9allocatorIS2_EEEERNS3_IS5_EEE5firstB7v160006Ev, symObjAddr: 0x5D28, symBinAddr: 0x1000085E8, symSize: 0x24 }
  - { offsetInCU: 0x14756, offset: 0x14756, size: 0x8, addend: 0x0, symName: __ZNSt3__114__split_bufferINS_6vectorI10LinkedListNS_9allocatorIS2_EEEERNS3_IS5_EEE21_ConstructTransactionC1B7v160006EPPS5_m, symObjAddr: 0x5D4C, symBinAddr: 0x10000860C, symSize: 0x3C }
  - { offsetInCU: 0x1479B, offset: 0x1479B, size: 0x8, addend: 0x0, symName: __ZNSt3__114__split_bufferINS_6vectorI10LinkedListNS_9allocatorIS2_EEEERNS3_IS5_EEE21_ConstructTransactionD1B7v160006Ev, symObjAddr: 0x5D88, symBinAddr: 0x100008648, symSize: 0x2C }
  - { offsetInCU: 0x147C4, offset: 0x147C4, size: 0x8, addend: 0x0, symName: __ZNSt3__114__split_bufferINS_6vectorI10LinkedListNS_9allocatorIS2_EEEERNS3_IS5_EEE21_ConstructTransactionC2B7v160006EPPS5_m, symObjAddr: 0x5DB4, symBinAddr: 0x100008674, symSize: 0x4C }
  - { offsetInCU: 0x14809, offset: 0x14809, size: 0x8, addend: 0x0, symName: __ZNSt3__114__split_bufferINS_6vectorI10LinkedListNS_9allocatorIS2_EEEERNS3_IS5_EEE21_ConstructTransactionD2B7v160006Ev, symObjAddr: 0x5E00, symBinAddr: 0x1000086C0, symSize: 0x20 }
  - { offsetInCU: 0x14832, offset: 0x14832, size: 0x8, addend: 0x0, symName: __ZNKSt3__16vectorINS0_I10LinkedListNS_9allocatorIS1_EEEENS2_IS4_EEE17__annotate_deleteB7v160006Ev, symObjAddr: 0x5E20, symBinAddr: 0x1000086E0, symSize: 0xD4 }
  - { offsetInCU: 0x14857, offset: 0x14857, size: 0x8, addend: 0x0, symName: __ZNSt3__116reverse_iteratorIPNS_6vectorI10LinkedListNS_9allocatorIS2_EEEEEC1B7v160006ES6_, symObjAddr: 0x6020, symBinAddr: 0x1000088E0, symSize: 0x34 }
  - { offsetInCU: 0x1488E, offset: 0x1488E, size: 0x8, addend: 0x0, symName: __ZNKSt3__116reverse_iteratorIPNS_6vectorI10LinkedListNS_9allocatorIS2_EEEEE4baseB7v160006Ev, symObjAddr: 0x6054, symBinAddr: 0x100008914, symSize: 0x18 }
  - { offsetInCU: 0x148B3, offset: 0x148B3, size: 0x8, addend: 0x0, symName: __ZNKSt3__16vectorINS0_I10LinkedListNS_9allocatorIS1_EEEENS2_IS4_EEE14__annotate_newB7v160006Em, symObjAddr: 0x60A8, symBinAddr: 0x100008968, symSize: 0xC8 }
  - { offsetInCU: 0x148E7, offset: 0x148E7, size: 0x8, addend: 0x0, symName: __ZNKSt3__16vectorINS0_I10LinkedListNS_9allocatorIS1_EEEENS2_IS4_EEE31__annotate_contiguous_containerB7v160006EPKvS8_S8_S8_, symObjAddr: 0x6180, symBinAddr: 0x100008A40, symSize: 0x20 }
  - { offsetInCU: 0x14938, offset: 0x14938, size: 0x8, addend: 0x0, symName: __ZNKSt3__16vectorINS0_I10LinkedListNS_9allocatorIS1_EEEENS2_IS4_EEE4dataB7v160006Ev, symObjAddr: 0x61A0, symBinAddr: 0x100008A60, symSize: 0x28 }
  - { offsetInCU: 0x1495D, offset: 0x1495D, size: 0x8, addend: 0x0, symName: __ZNSt3__129_AllocatorDestroyRangeReverseINS_9allocatorINS_6vectorI10LinkedListNS1_IS3_EEEEEENS_16reverse_iteratorIPS5_EEEC1B7v160006ERS6_RS9_SC_, symObjAddr: 0x6214, symBinAddr: 0x100008AD4, symSize: 0x44 }
  - { offsetInCU: 0x149B3, offset: 0x149B3, size: 0x8, addend: 0x0, symName: __ZNSt3__116allocator_traitsINS_9allocatorINS_6vectorI10LinkedListNS1_IS3_EEEEEEE9constructB7v160006IS5_JS5_EvEEvRS6_PT_DpOT0_, symObjAddr: 0x62A0, symBinAddr: 0x100008B60, symSize: 0x34 }
  - { offsetInCU: 0x14A0A, offset: 0x14A0A, size: 0x8, addend: 0x0, symName: __ZNKSt3__116reverse_iteratorIPNS_6vectorI10LinkedListNS_9allocatorIS2_EEEEEdeB7v160006Ev, symObjAddr: 0x62F8, symBinAddr: 0x100008BB8, symSize: 0x28 }
  - { offsetInCU: 0x14A3D, offset: 0x14A3D, size: 0x8, addend: 0x0, symName: __ZNSt3__116reverse_iteratorIPNS_6vectorI10LinkedListNS_9allocatorIS2_EEEEEppB7v160006Ev, symObjAddr: 0x6320, symBinAddr: 0x100008BE0, symSize: 0x20 }
  - { offsetInCU: 0x14A62, offset: 0x14A62, size: 0x8, addend: 0x0, symName: __ZNSt3__128__exception_guard_exceptionsINS_29_AllocatorDestroyRangeReverseINS_9allocatorINS_6vectorI10LinkedListNS2_IS4_EEEEEENS_16reverse_iteratorIPS6_EEEEE10__completeB7v160006Ev, symObjAddr: 0x6340, symBinAddr: 0x100008C00, symSize: 0x1C }
  - { offsetInCU: 0x14A87, offset: 0x14A87, size: 0x8, addend: 0x0, symName: __ZNSt3__128__exception_guard_exceptionsINS_29_AllocatorDestroyRangeReverseINS_9allocatorINS_6vectorI10LinkedListNS2_IS4_EEEEEENS_16reverse_iteratorIPS6_EEEEED1B7v160006Ev, symObjAddr: 0x635C, symBinAddr: 0x100008C1C, symSize: 0x2C }
  - { offsetInCU: 0x14AB0, offset: 0x14AB0, size: 0x8, addend: 0x0, symName: __ZNSt3__128__exception_guard_exceptionsINS_29_AllocatorDestroyRangeReverseINS_9allocatorINS_6vectorI10LinkedListNS2_IS4_EEEEEENS_16reverse_iteratorIPS6_EEEEEC1B7v160006ESB_, symObjAddr: 0x6388, symBinAddr: 0x100008C48, symSize: 0x34 }
  - { offsetInCU: 0x14AE8, offset: 0x14AE8, size: 0x8, addend: 0x0, symName: __ZNSt3__128__exception_guard_exceptionsINS_29_AllocatorDestroyRangeReverseINS_9allocatorINS_6vectorI10LinkedListNS2_IS4_EEEEEENS_16reverse_iteratorIPS6_EEEEEC2B7v160006ESB_, symObjAddr: 0x63BC, symBinAddr: 0x100008C7C, symSize: 0x30 }
  - { offsetInCU: 0x14B20, offset: 0x14B20, size: 0x8, addend: 0x0, symName: __ZNSt3__129_AllocatorDestroyRangeReverseINS_9allocatorINS_6vectorI10LinkedListNS1_IS3_EEEEEENS_16reverse_iteratorIPS5_EEEC2B7v160006ERS6_RS9_SC_, symObjAddr: 0x63EC, symBinAddr: 0x100008CAC, symSize: 0x38 }
  - { offsetInCU: 0x14B76, offset: 0x14B76, size: 0x8, addend: 0x0, symName: __ZNSt3__19allocatorINS_6vectorI10LinkedListNS0_IS2_EEEEE9constructB7v160006IS4_JS4_EEEvPT_DpOT0_, symObjAddr: 0x6424, symBinAddr: 0x100008CE4, symSize: 0x30 }
  - { offsetInCU: 0x14BCB, offset: 0x14BCB, size: 0x8, addend: 0x0, symName: __ZNSt3__16vectorI10LinkedListNS_9allocatorIS1_EEEC1B7v160006EOS4_, symObjAddr: 0x6454, symBinAddr: 0x100008D14, symSize: 0x34 }
  - { offsetInCU: 0x14C05, offset: 0x14C05, size: 0x8, addend: 0x0, symName: __ZNSt3__16vectorI10LinkedListNS_9allocatorIS1_EEEC2B7v160006EOS4_, symObjAddr: 0x6488, symBinAddr: 0x100008D48, symSize: 0xDC }
  - { offsetInCU: 0x14C3F, offset: 0x14C3F, size: 0x8, addend: 0x0, symName: __ZNSt3__16vectorI10LinkedListNS_9allocatorIS1_EEE7__allocB7v160006Ev, symObjAddr: 0x6564, symBinAddr: 0x100008E24, symSize: 0x28 }
  - { offsetInCU: 0x14C69, offset: 0x14C69, size: 0x8, addend: 0x0, symName: __ZNSt3__117__compressed_pairIP10LinkedListNS_9allocatorIS1_EEEC1B7v160006IDnS4_EEOT_OT0_, symObjAddr: 0x658C, symBinAddr: 0x100008E4C, symSize: 0x3C }
  - { offsetInCU: 0x14CC0, offset: 0x14CC0, size: 0x8, addend: 0x0, symName: __ZNSt3__16vectorI10LinkedListNS_9allocatorIS1_EEE9__end_capB7v160006Ev, symObjAddr: 0x65DC, symBinAddr: 0x100008E9C, symSize: 0x28 }
  - { offsetInCU: 0x14CE5, offset: 0x14CE5, size: 0x8, addend: 0x0, symName: __ZNSt3__117__compressed_pairIP10LinkedListNS_9allocatorIS1_EEE6secondB7v160006Ev, symObjAddr: 0x6604, symBinAddr: 0x100008EC4, symSize: 0x24 }
  - { offsetInCU: 0x14D0A, offset: 0x14D0A, size: 0x8, addend: 0x0, symName: __ZNSt3__122__compressed_pair_elemINS_9allocatorI10LinkedListEELi1ELb1EE5__getB7v160006Ev, symObjAddr: 0x6628, symBinAddr: 0x100008EE8, symSize: 0x14 }
  - { offsetInCU: 0x14D2F, offset: 0x14D2F, size: 0x8, addend: 0x0, symName: __ZNSt3__117__compressed_pairIP10LinkedListNS_9allocatorIS1_EEEC2B7v160006IDnS4_EEOT_OT0_, symObjAddr: 0x663C, symBinAddr: 0x100008EFC, symSize: 0x44 }
  - { offsetInCU: 0x14D86, offset: 0x14D86, size: 0x8, addend: 0x0, symName: __ZNSt3__122__compressed_pair_elemINS_9allocatorI10LinkedListEELi1ELb1EEC2B7v160006IS3_vEEOT_, symObjAddr: 0x6680, symBinAddr: 0x100008F40, symSize: 0x18 }
  - { offsetInCU: 0x14DC7, offset: 0x14DC7, size: 0x8, addend: 0x0, symName: __ZNSt3__117__compressed_pairIP10LinkedListNS_9allocatorIS1_EEE5firstB7v160006Ev, symObjAddr: 0x6698, symBinAddr: 0x100008F58, symSize: 0x24 }
  - { offsetInCU: 0x14DEC, offset: 0x14DEC, size: 0x8, addend: 0x0, symName: __ZNSt3__122__compressed_pair_elemIP10LinkedListLi0ELb0EE5__getB7v160006Ev, symObjAddr: 0x66BC, symBinAddr: 0x100008F7C, symSize: 0x14 }
  - { offsetInCU: 0x14E16, offset: 0x14E16, size: 0x8, addend: 0x0, symName: __ZNSt3__119__to_address_helperINS_16reverse_iteratorIPNS_6vectorI10LinkedListNS_9allocatorIS3_EEEEEEvE6__callB7v160006ERKS8_, symObjAddr: 0x66D0, symBinAddr: 0x100008F90, symSize: 0x38 }
  - { offsetInCU: 0x14E39, offset: 0x14E39, size: 0x8, addend: 0x0, symName: __ZNKSt3__116reverse_iteratorIPNS_6vectorI10LinkedListNS_9allocatorIS2_EEEEEptB7v160006Ev, symObjAddr: 0x6708, symBinAddr: 0x100008FC8, symSize: 0x24 }
  - { offsetInCU: 0x14E5E, offset: 0x14E5E, size: 0x8, addend: 0x0, symName: __ZNSt3__128__exception_guard_exceptionsINS_29_AllocatorDestroyRangeReverseINS_9allocatorINS_6vectorI10LinkedListNS2_IS4_EEEEEENS_16reverse_iteratorIPS6_EEEEED2B7v160006Ev, symObjAddr: 0x672C, symBinAddr: 0x100008FEC, symSize: 0x50 }
  - { offsetInCU: 0x14E87, offset: 0x14E87, size: 0x8, addend: 0x0, symName: __ZNKSt3__129_AllocatorDestroyRangeReverseINS_9allocatorINS_6vectorI10LinkedListNS1_IS3_EEEEEENS_16reverse_iteratorIPS5_EEEclB7v160006Ev, symObjAddr: 0x677C, symBinAddr: 0x10000903C, symSize: 0xB4 }
  - { offsetInCU: 0x14EAD, offset: 0x14EAD, size: 0x8, addend: 0x0, symName: __ZNSt3__116reverse_iteratorINS0_IPNS_6vectorI10LinkedListNS_9allocatorIS2_EEEEEEEC1B7v160006ES7_, symObjAddr: 0x68A0, symBinAddr: 0x100009160, symSize: 0x3C }
  - { offsetInCU: 0x14EE4, offset: 0x14EE4, size: 0x8, addend: 0x0, symName: __ZNSt3__116allocator_traitsINS_9allocatorINS_6vectorI10LinkedListNS1_IS3_EEEEEEE7destroyB7v160006IS5_vEEvRS6_PT_, symObjAddr: 0x693C, symBinAddr: 0x1000091FC, symSize: 0x2C }
  - { offsetInCU: 0x14F21, offset: 0x14F21, size: 0x8, addend: 0x0, symName: __ZNSt3__116reverse_iteratorINS0_IPNS_6vectorI10LinkedListNS_9allocatorIS2_EEEEEEEppB7v160006Ev, symObjAddr: 0x698C, symBinAddr: 0x10000924C, symSize: 0x30 }
  - { offsetInCU: 0x14F46, offset: 0x14F46, size: 0x8, addend: 0x0, symName: __ZNKSt3__116reverse_iteratorINS0_IPNS_6vectorI10LinkedListNS_9allocatorIS2_EEEEEEE4baseB7v160006Ev, symObjAddr: 0x69BC, symBinAddr: 0x10000927C, symSize: 0x24 }
  - { offsetInCU: 0x14F6B, offset: 0x14F6B, size: 0x8, addend: 0x0, symName: __ZNSt3__19allocatorINS_6vectorI10LinkedListNS0_IS2_EEEEE7destroyB7v160006EPS4_, symObjAddr: 0x69E0, symBinAddr: 0x1000092A0, symSize: 0x28 }
  - { offsetInCU: 0x14F9E, offset: 0x14F9E, size: 0x8, addend: 0x0, symName: __ZNSt3__16vectorI10LinkedListNS_9allocatorIS1_EEED1B7v160006Ev, symObjAddr: 0x6A08, symBinAddr: 0x1000092C8, symSize: 0x2C }
  - { offsetInCU: 0x14FC7, offset: 0x14FC7, size: 0x8, addend: 0x0, symName: __ZNSt3__16vectorI10LinkedListNS_9allocatorIS1_EEED2B7v160006Ev, symObjAddr: 0x6A34, symBinAddr: 0x1000092F4, symSize: 0x44 }
  - { offsetInCU: 0x14FF0, offset: 0x14FF0, size: 0x8, addend: 0x0, symName: __ZNSt3__16vectorI10LinkedListNS_9allocatorIS1_EEE16__destroy_vectorC1ERS4_, symObjAddr: 0x6A78, symBinAddr: 0x100009338, symSize: 0x34 }
  - { offsetInCU: 0x15028, offset: 0x15028, size: 0x8, addend: 0x0, symName: __ZNSt3__16vectorI10LinkedListNS_9allocatorIS1_EEE16__destroy_vectorclB7v160006Ev, symObjAddr: 0x6AAC, symBinAddr: 0x10000936C, symSize: 0x9C }
  - { offsetInCU: 0x1504D, offset: 0x1504D, size: 0x8, addend: 0x0, symName: __ZNSt3__16vectorI10LinkedListNS_9allocatorIS1_EEE16__destroy_vectorC2ERS4_, symObjAddr: 0x6B48, symBinAddr: 0x100009408, symSize: 0x20 }
  - { offsetInCU: 0x15085, offset: 0x15085, size: 0x8, addend: 0x0, symName: __ZNKSt3__16vectorI10LinkedListNS_9allocatorIS1_EEE17__annotate_deleteB7v160006Ev, symObjAddr: 0x6B68, symBinAddr: 0x100009428, symSize: 0xD4 }
  - { offsetInCU: 0x150AA, offset: 0x150AA, size: 0x8, addend: 0x0, symName: __ZNSt3__16vectorI10LinkedListNS_9allocatorIS1_EEE7__clearB7v160006Ev, symObjAddr: 0x6C4C, symBinAddr: 0x10000950C, symSize: 0x28 }
  - { offsetInCU: 0x150CF, offset: 0x150CF, size: 0x8, addend: 0x0, symName: __ZNSt3__116allocator_traitsINS_9allocatorI10LinkedListEEE10deallocateB7v160006ERS3_PS2_m, symObjAddr: 0x6C74, symBinAddr: 0x100009534, symSize: 0x34 }
  - { offsetInCU: 0x15111, offset: 0x15111, size: 0x8, addend: 0x0, symName: __ZNKSt3__16vectorI10LinkedListNS_9allocatorIS1_EEE8capacityB7v160006Ev, symObjAddr: 0x6CA8, symBinAddr: 0x100009568, symSize: 0x40 }
  - { offsetInCU: 0x15136, offset: 0x15136, size: 0x8, addend: 0x0, symName: __ZNKSt3__16vectorI10LinkedListNS_9allocatorIS1_EEE31__annotate_contiguous_containerB7v160006EPKvS6_S6_S6_, symObjAddr: 0x6CE8, symBinAddr: 0x1000095A8, symSize: 0x20 }
  - { offsetInCU: 0x15187, offset: 0x15187, size: 0x8, addend: 0x0, symName: __ZNKSt3__16vectorI10LinkedListNS_9allocatorIS1_EEE4dataB7v160006Ev, symObjAddr: 0x6D08, symBinAddr: 0x1000095C8, symSize: 0x28 }
  - { offsetInCU: 0x151AC, offset: 0x151AC, size: 0x8, addend: 0x0, symName: __ZNKSt3__16vectorI10LinkedListNS_9allocatorIS1_EEE4sizeB7v160006Ev, symObjAddr: 0x6D30, symBinAddr: 0x1000095F0, symSize: 0x28 }
  - { offsetInCU: 0x151D1, offset: 0x151D1, size: 0x8, addend: 0x0, symName: __ZNSt3__16vectorI10LinkedListNS_9allocatorIS1_EEE22__base_destruct_at_endB7v160006EPS1_, symObjAddr: 0x6D6C, symBinAddr: 0x10000962C, symSize: 0x8C }
  - { offsetInCU: 0x15214, offset: 0x15214, size: 0x8, addend: 0x0, symName: __ZNSt3__116allocator_traitsINS_9allocatorI10LinkedListEEE7destroyB7v160006IS2_vEEvRS3_PT_, symObjAddr: 0x6DF8, symBinAddr: 0x1000096B8, symSize: 0x2C }
  - { offsetInCU: 0x15251, offset: 0x15251, size: 0x8, addend: 0x0, symName: __ZNSt3__19allocatorI10LinkedListE7destroyB7v160006EPS1_, symObjAddr: 0x6E24, symBinAddr: 0x1000096E4, symSize: 0x14 }
  - { offsetInCU: 0x15284, offset: 0x15284, size: 0x8, addend: 0x0, symName: __ZNSt3__19allocatorI10LinkedListE10deallocateB7v160006EPS1_m, symObjAddr: 0x6E38, symBinAddr: 0x1000096F8, symSize: 0x44 }
  - { offsetInCU: 0x152C5, offset: 0x152C5, size: 0x8, addend: 0x0, symName: __ZNKSt3__16vectorI10LinkedListNS_9allocatorIS1_EEE9__end_capB7v160006Ev, symObjAddr: 0x6E7C, symBinAddr: 0x10000973C, symSize: 0x28 }
  - { offsetInCU: 0x152EA, offset: 0x152EA, size: 0x8, addend: 0x0, symName: __ZNKSt3__117__compressed_pairIP10LinkedListNS_9allocatorIS1_EEE5firstB7v160006Ev, symObjAddr: 0x6EA4, symBinAddr: 0x100009764, symSize: 0x24 }
  - { offsetInCU: 0x1530F, offset: 0x1530F, size: 0x8, addend: 0x0, symName: __ZNKSt3__122__compressed_pair_elemIP10LinkedListLi0ELb0EE5__getB7v160006Ev, symObjAddr: 0x6EC8, symBinAddr: 0x100009788, symSize: 0x14 }
  - { offsetInCU: 0x15339, offset: 0x15339, size: 0x8, addend: 0x0, symName: __ZNSt3__119__to_address_helperINS_16reverse_iteratorINS1_IPNS_6vectorI10LinkedListNS_9allocatorIS3_EEEEEEEEvE6__callB7v160006ERKS9_, symObjAddr: 0x6EDC, symBinAddr: 0x10000979C, symSize: 0x38 }
  - { offsetInCU: 0x1535C, offset: 0x1535C, size: 0x8, addend: 0x0, symName: __ZNKSt3__116reverse_iteratorINS0_IPNS_6vectorI10LinkedListNS_9allocatorIS2_EEEEEEEptB7v160006Ev, symObjAddr: 0x6F14, symBinAddr: 0x1000097D4, symSize: 0x24 }
  - { offsetInCU: 0x15381, offset: 0x15381, size: 0x8, addend: 0x0, symName: __ZNKSt3__116reverse_iteratorINS0_IPNS_6vectorI10LinkedListNS_9allocatorIS2_EEEEEEEdeB7v160006Ev, symObjAddr: 0x6F38, symBinAddr: 0x1000097F8, symSize: 0x34 }
  - { offsetInCU: 0x153B4, offset: 0x153B4, size: 0x8, addend: 0x0, symName: __ZNSt3__116reverse_iteratorIPNS_6vectorI10LinkedListNS_9allocatorIS2_EEEEEmmB7v160006Ev, symObjAddr: 0x6F6C, symBinAddr: 0x10000982C, symSize: 0x20 }
  - { offsetInCU: 0x153D9, offset: 0x153D9, size: 0x8, addend: 0x0, symName: __ZNSt3__116reverse_iteratorINS0_IPNS_6vectorI10LinkedListNS_9allocatorIS2_EEEEEEEC2B7v160006ES7_, symObjAddr: 0x6F8C, symBinAddr: 0x10000984C, symSize: 0x2C }
  - { offsetInCU: 0x15410, offset: 0x15410, size: 0x8, addend: 0x0, symName: __ZNSt3__116reverse_iteratorIPNS_6vectorI10LinkedListNS_9allocatorIS2_EEEEEC2B7v160006ES6_, symObjAddr: 0x6FB8, symBinAddr: 0x100009878, symSize: 0x28 }
  - { offsetInCU: 0x15447, offset: 0x15447, size: 0x8, addend: 0x0, symName: __ZNSt3__114__split_bufferINS_6vectorI10LinkedListNS_9allocatorIS2_EEEERNS3_IS5_EEED2Ev, symObjAddr: 0x6FE0, symBinAddr: 0x1000098A0, symSize: 0x8C }
  - { offsetInCU: 0x15472, offset: 0x15472, size: 0x8, addend: 0x0, symName: __ZNSt3__114__split_bufferINS_6vectorI10LinkedListNS_9allocatorIS2_EEEERNS3_IS5_EEE5clearB7v160006Ev, symObjAddr: 0x706C, symBinAddr: 0x10000992C, symSize: 0x28 }
  - { offsetInCU: 0x15497, offset: 0x15497, size: 0x8, addend: 0x0, symName: __ZNSt3__116allocator_traitsINS_9allocatorINS_6vectorI10LinkedListNS1_IS3_EEEEEEE10deallocateB7v160006ERS6_PS5_m, symObjAddr: 0x7094, symBinAddr: 0x100009954, symSize: 0x34 }
  - { offsetInCU: 0x154D9, offset: 0x154D9, size: 0x8, addend: 0x0, symName: __ZNKSt3__114__split_bufferINS_6vectorI10LinkedListNS_9allocatorIS2_EEEERNS3_IS5_EEE8capacityB7v160006Ev, symObjAddr: 0x70C8, symBinAddr: 0x100009988, symSize: 0x40 }
  - { offsetInCU: 0x154FE, offset: 0x154FE, size: 0x8, addend: 0x0, symName: __ZNSt3__114__split_bufferINS_6vectorI10LinkedListNS_9allocatorIS2_EEEERNS3_IS5_EEE17__destruct_at_endB7v160006EPS5_, symObjAddr: 0x7108, symBinAddr: 0x1000099C8, symSize: 0x2C }
  - { offsetInCU: 0x15530, offset: 0x15530, size: 0x8, addend: 0x0, symName: __ZNSt3__114__split_bufferINS_6vectorI10LinkedListNS_9allocatorIS2_EEEERNS3_IS5_EEE17__destruct_at_endB7v160006EPS5_NS_17integral_constantIbLb0EEE, symObjAddr: 0x7134, symBinAddr: 0x1000099F4, symSize: 0x80 }
  - { offsetInCU: 0x15570, offset: 0x15570, size: 0x8, addend: 0x0, symName: __ZNSt3__19allocatorINS_6vectorI10LinkedListNS0_IS2_EEEEE10deallocateB7v160006EPS4_m, symObjAddr: 0x71B4, symBinAddr: 0x100009A74, symSize: 0x44 }
  - { offsetInCU: 0x155B1, offset: 0x155B1, size: 0x8, addend: 0x0, symName: __ZNKSt3__114__split_bufferINS_6vectorI10LinkedListNS_9allocatorIS2_EEEERNS3_IS5_EEE9__end_capB7v160006Ev, symObjAddr: 0x71F8, symBinAddr: 0x100009AB8, symSize: 0x28 }
  - { offsetInCU: 0x155D6, offset: 0x155D6, size: 0x8, addend: 0x0, symName: __ZNKSt3__117__compressed_pairIPNS_6vectorI10LinkedListNS_9allocatorIS2_EEEERNS3_IS5_EEE5firstB7v160006Ev, symObjAddr: 0x7220, symBinAddr: 0x100009AE0, symSize: 0x24 }
  - { offsetInCU: 0x155FB, offset: 0x155FB, size: 0x8, addend: 0x0, symName: __ZNSt3__16vectorINS0_I10LinkedListNS_9allocatorIS1_EEEENS2_IS4_EEE27__invalidate_iterators_pastB7v160006EPS4_, symObjAddr: 0x7244, symBinAddr: 0x100009B04, symSize: 0x14 }
  - { offsetInCU: 0x15631, offset: 0x15631, size: 0x8, addend: 0x0, symName: __ZNSt3__16vectorINS0_I10LinkedListNS_9allocatorIS1_EEEENS2_IS4_EEE22__base_destruct_at_endB7v160006EPS4_, symObjAddr: 0x7258, symBinAddr: 0x100009B18, symSize: 0x8C }
  - { offsetInCU: 0x15674, offset: 0x15674, size: 0x8, addend: 0x0, symName: __ZNKSt3__16vectorINS0_I10LinkedListNS_9allocatorIS1_EEEENS2_IS4_EEE17__annotate_shrinkB7v160006Em, symObjAddr: 0x72E4, symBinAddr: 0x100009BA4, symSize: 0xD0 }
  - { offsetInCU: 0x156A8, offset: 0x156A8, size: 0x8, addend: 0x0, symName: __ZNKSt3__16vectorINS0_I10LinkedListNS_9allocatorIS1_EEEENS2_IS4_EEE20__throw_out_of_rangeB7v160006Ev, symObjAddr: 0x73B4, symBinAddr: 0x100009C74, symSize: 0x1C }
  - { offsetInCU: 0x156CD, offset: 0x156CD, size: 0x8, addend: 0x0, symName: __ZNSt12out_of_rangeC1B7v160006EPKc, symObjAddr: 0x7434, symBinAddr: 0x100009CF4, symSize: 0x34 }
  - { offsetInCU: 0x15704, offset: 0x15704, size: 0x8, addend: 0x0, symName: __ZNSt12out_of_rangeC2B7v160006EPKc, symObjAddr: 0x7468, symBinAddr: 0x100009D28, symSize: 0x4C }
  - { offsetInCU: 0x1573A, offset: 0x1573A, size: 0x8, addend: 0x0, symName: __ZNSt3__16vectorI10LinkedListNS_9allocatorIS1_EEE8__appendEm, symObjAddr: 0x74B4, symBinAddr: 0x100009D74, symSize: 0x108 }
  - { offsetInCU: 0x15794, offset: 0x15794, size: 0x8, addend: 0x0, symName: __ZNSt3__16vectorI10LinkedListNS_9allocatorIS1_EEE17__destruct_at_endB7v160006EPS1_, symObjAddr: 0x75BC, symBinAddr: 0x100009E7C, symSize: 0x60 }
  - { offsetInCU: 0x157D6, offset: 0x157D6, size: 0x8, addend: 0x0, symName: __ZNSt3__16vectorI10LinkedListNS_9allocatorIS1_EEE18__construct_at_endEm, symObjAddr: 0x761C, symBinAddr: 0x100009EDC, symSize: 0xC8 }
  - { offsetInCU: 0x15847, offset: 0x15847, size: 0x8, addend: 0x0, symName: __ZNKSt3__16vectorI10LinkedListNS_9allocatorIS1_EEE11__recommendB7v160006Em, symObjAddr: 0x76E4, symBinAddr: 0x100009FA4, symSize: 0xB4 }
  - { offsetInCU: 0x1589B, offset: 0x1589B, size: 0x8, addend: 0x0, symName: __ZNSt3__114__split_bufferI10LinkedListRNS_9allocatorIS1_EEEC1EmmS4_, symObjAddr: 0x7798, symBinAddr: 0x10000A058, symSize: 0x44 }
  - { offsetInCU: 0x158F0, offset: 0x158F0, size: 0x8, addend: 0x0, symName: __ZNSt3__114__split_bufferI10LinkedListRNS_9allocatorIS1_EEE18__construct_at_endEm, symObjAddr: 0x77DC, symBinAddr: 0x10000A09C, symSize: 0xB4 }
  - { offsetInCU: 0x15932, offset: 0x15932, size: 0x8, addend: 0x0, symName: __ZNSt3__114__split_bufferI10LinkedListRNS_9allocatorIS1_EEED1Ev, symObjAddr: 0x79A8, symBinAddr: 0x10000A268, symSize: 0x2C }
  - { offsetInCU: 0x15976, offset: 0x15976, size: 0x8, addend: 0x0, symName: __ZNSt3__16vectorI10LinkedListNS_9allocatorIS1_EEE21_ConstructTransactionC1B7v160006ERS4_m, symObjAddr: 0x79D4, symBinAddr: 0x10000A294, symSize: 0x3C }
  - { offsetInCU: 0x159BD, offset: 0x159BD, size: 0x8, addend: 0x0, symName: __ZNSt3__116allocator_traitsINS_9allocatorI10LinkedListEEE9constructB7v160006IS2_JEvEEvRS3_PT_DpOT0_, symObjAddr: 0x7A10, symBinAddr: 0x10000A2D0, symSize: 0x2C }
  - { offsetInCU: 0x159FF, offset: 0x159FF, size: 0x8, addend: 0x0, symName: __ZNSt3__16vectorI10LinkedListNS_9allocatorIS1_EEE21_ConstructTransactionD1B7v160006Ev, symObjAddr: 0x7A3C, symBinAddr: 0x10000A2FC, symSize: 0x2C }
  - { offsetInCU: 0x15A28, offset: 0x15A28, size: 0x8, addend: 0x0, symName: __ZNSt3__16vectorI10LinkedListNS_9allocatorIS1_EEE21_ConstructTransactionC2B7v160006ERS4_m, symObjAddr: 0x7A68, symBinAddr: 0x10000A328, symSize: 0x4C }
  - { offsetInCU: 0x15A6F, offset: 0x15A6F, size: 0x8, addend: 0x0, symName: __ZNSt3__19allocatorI10LinkedListE9constructB7v160006IS1_JEEEvPT_DpOT0_, symObjAddr: 0x7AB4, symBinAddr: 0x10000A374, symSize: 0x28 }
  - { offsetInCU: 0x15AB0, offset: 0x15AB0, size: 0x8, addend: 0x0, symName: __ZNSt3__16vectorI10LinkedListNS_9allocatorIS1_EEE21_ConstructTransactionD2B7v160006Ev, symObjAddr: 0x7ADC, symBinAddr: 0x10000A39C, symSize: 0x20 }
  - { offsetInCU: 0x15AD8, offset: 0x15AD8, size: 0x8, addend: 0x0, symName: __ZNKSt3__16vectorI10LinkedListNS_9allocatorIS1_EEE8max_sizeEv, symObjAddr: 0x7AFC, symBinAddr: 0x10000A3BC, symSize: 0x60 }
  - { offsetInCU: 0x15AFF, offset: 0x15AFF, size: 0x8, addend: 0x0, symName: __ZNKSt3__16vectorI10LinkedListNS_9allocatorIS1_EEE20__throw_length_errorB7v160006Ev, symObjAddr: 0x7B5C, symBinAddr: 0x10000A41C, symSize: 0x1C }
  - { offsetInCU: 0x15B2E, offset: 0x15B2E, size: 0x8, addend: 0x0, symName: __ZNSt3__116allocator_traitsINS_9allocatorI10LinkedListEEE8max_sizeB7v160006IS3_vEEmRKS3_, symObjAddr: 0x7B78, symBinAddr: 0x10000A438, symSize: 0x24 }
  - { offsetInCU: 0x15B5C, offset: 0x15B5C, size: 0x8, addend: 0x0, symName: __ZNKSt3__16vectorI10LinkedListNS_9allocatorIS1_EEE7__allocB7v160006Ev, symObjAddr: 0x7B9C, symBinAddr: 0x10000A45C, symSize: 0x28 }
  - { offsetInCU: 0x15B81, offset: 0x15B81, size: 0x8, addend: 0x0, symName: __ZNKSt3__19allocatorI10LinkedListE8max_sizeB7v160006Ev, symObjAddr: 0x7BC4, symBinAddr: 0x10000A484, symSize: 0x18 }
  - { offsetInCU: 0x15BA6, offset: 0x15BA6, size: 0x8, addend: 0x0, symName: __ZNKSt3__117__compressed_pairIP10LinkedListNS_9allocatorIS1_EEE6secondB7v160006Ev, symObjAddr: 0x7BDC, symBinAddr: 0x10000A49C, symSize: 0x24 }
  - { offsetInCU: 0x15BCB, offset: 0x15BCB, size: 0x8, addend: 0x0, symName: __ZNKSt3__122__compressed_pair_elemINS_9allocatorI10LinkedListEELi1ELb1EE5__getB7v160006Ev, symObjAddr: 0x7C00, symBinAddr: 0x10000A4C0, symSize: 0x14 }
  - { offsetInCU: 0x15BF0, offset: 0x15BF0, size: 0x8, addend: 0x0, symName: __ZNSt3__114__split_bufferI10LinkedListRNS_9allocatorIS1_EEEC2EmmS4_, symObjAddr: 0x7C14, symBinAddr: 0x10000A4D4, symSize: 0xE0 }
  - { offsetInCU: 0x15C63, offset: 0x15C63, size: 0x8, addend: 0x0, symName: __ZNSt3__117__compressed_pairIP10LinkedListRNS_9allocatorIS1_EEEC1B7v160006IDnS5_EEOT_OT0_, symObjAddr: 0x7CF4, symBinAddr: 0x10000A5B4, symSize: 0x3C }
  - { offsetInCU: 0x15CBA, offset: 0x15CBA, size: 0x8, addend: 0x0, symName: __ZNSt3__114__split_bufferI10LinkedListRNS_9allocatorIS1_EEE7__allocB7v160006Ev, symObjAddr: 0x7D70, symBinAddr: 0x10000A630, symSize: 0x28 }
  - { offsetInCU: 0x15CDF, offset: 0x15CDF, size: 0x8, addend: 0x0, symName: __ZNSt3__114__split_bufferI10LinkedListRNS_9allocatorIS1_EEE9__end_capB7v160006Ev, symObjAddr: 0x7D98, symBinAddr: 0x10000A658, symSize: 0x28 }
  - { offsetInCU: 0x15D04, offset: 0x15D04, size: 0x8, addend: 0x0, symName: __ZNSt3__117__compressed_pairIP10LinkedListRNS_9allocatorIS1_EEEC2B7v160006IDnS5_EEOT_OT0_, symObjAddr: 0x7DC0, symBinAddr: 0x10000A680, symSize: 0x48 }
  - { offsetInCU: 0x15D5B, offset: 0x15D5B, size: 0x8, addend: 0x0, symName: __ZNSt3__122__compressed_pair_elemIRNS_9allocatorI10LinkedListEELi1ELb0EEC2B7v160006IS4_vEEOT_, symObjAddr: 0x7E08, symBinAddr: 0x10000A6C8, symSize: 0x20 }
  - { offsetInCU: 0x15D9C, offset: 0x15D9C, size: 0x8, addend: 0x0, symName: __ZNSt3__19allocatorI10LinkedListE8allocateB7v160006Em, symObjAddr: 0x7E28, symBinAddr: 0x10000A6E8, symSize: 0x5C }
  - { offsetInCU: 0x15DCF, offset: 0x15DCF, size: 0x8, addend: 0x0, symName: __ZNSt3__117__compressed_pairIP10LinkedListRNS_9allocatorIS1_EEE6secondB7v160006Ev, symObjAddr: 0x7E84, symBinAddr: 0x10000A744, symSize: 0x28 }
  - { offsetInCU: 0x15DF4, offset: 0x15DF4, size: 0x8, addend: 0x0, symName: __ZNSt3__122__compressed_pair_elemIRNS_9allocatorI10LinkedListEELi1ELb0EE5__getB7v160006Ev, symObjAddr: 0x7EAC, symBinAddr: 0x10000A76C, symSize: 0x18 }
  - { offsetInCU: 0x15E19, offset: 0x15E19, size: 0x8, addend: 0x0, symName: __ZNSt3__117__compressed_pairIP10LinkedListRNS_9allocatorIS1_EEE5firstB7v160006Ev, symObjAddr: 0x7EC4, symBinAddr: 0x10000A784, symSize: 0x24 }
  - { offsetInCU: 0x15E48, offset: 0x15E48, size: 0x8, addend: 0x0, symName: __ZNSt3__114__split_bufferI10LinkedListRNS_9allocatorIS1_EEE21_ConstructTransactionC1B7v160006EPPS1_m, symObjAddr: 0x7EE8, symBinAddr: 0x10000A7A8, symSize: 0x3C }
  - { offsetInCU: 0x15E8D, offset: 0x15E8D, size: 0x8, addend: 0x0, symName: __ZNSt3__114__split_bufferI10LinkedListRNS_9allocatorIS1_EEE21_ConstructTransactionD1B7v160006Ev, symObjAddr: 0x7F24, symBinAddr: 0x10000A7E4, symSize: 0x2C }
  - { offsetInCU: 0x15EB6, offset: 0x15EB6, size: 0x8, addend: 0x0, symName: __ZNSt3__114__split_bufferI10LinkedListRNS_9allocatorIS1_EEE21_ConstructTransactionC2B7v160006EPPS1_m, symObjAddr: 0x7F50, symBinAddr: 0x10000A810, symSize: 0x4C }
  - { offsetInCU: 0x15EFB, offset: 0x15EFB, size: 0x8, addend: 0x0, symName: __ZNSt3__114__split_bufferI10LinkedListRNS_9allocatorIS1_EEE21_ConstructTransactionD2B7v160006Ev, symObjAddr: 0x7F9C, symBinAddr: 0x10000A85C, symSize: 0x20 }
  - { offsetInCU: 0x15F24, offset: 0x15F24, size: 0x8, addend: 0x0, symName: __ZNSt3__116reverse_iteratorIP10LinkedListEC1B7v160006ES2_, symObjAddr: 0x8034, symBinAddr: 0x10000A8F4, symSize: 0x34 }
  - { offsetInCU: 0x15F5B, offset: 0x15F5B, size: 0x8, addend: 0x0, symName: __ZNKSt3__116reverse_iteratorIP10LinkedListE4baseB7v160006Ev, symObjAddr: 0x8068, symBinAddr: 0x10000A928, symSize: 0x18 }
  - { offsetInCU: 0x15F80, offset: 0x15F80, size: 0x8, addend: 0x0, symName: __ZNKSt3__16vectorI10LinkedListNS_9allocatorIS1_EEE14__annotate_newB7v160006Em, symObjAddr: 0x80BC, symBinAddr: 0x10000A97C, symSize: 0xC8 }
  - { offsetInCU: 0x15FCD, offset: 0x15FCD, size: 0x8, addend: 0x0, symName: __ZNKSt3__111__move_loopINS_17_ClassicAlgPolicyEEclB7v160006INS_16reverse_iteratorIP10LinkedListEES7_S7_EENS_4pairIT_T1_EES9_T0_SA_, symObjAddr: 0x8484, symBinAddr: 0x10000AD44, symSize: 0xA8 }
  - { offsetInCU: 0x1603C, offset: 0x1603C, size: 0x8, addend: 0x0, symName: __ZNSt3__18_IterOpsINS_17_ClassicAlgPolicyEE11__iter_moveB7v160006IRNS_16reverse_iteratorIP10LinkedListEEEENS_9enable_ifIXsr12is_referenceIDTdeclsr3stdE7declvalIRT_EEEEE5valueEDTclsr3stdE4movedeclsr3stdE7declvalISB_EEEEE4typeEOSA_, symObjAddr: 0x86C0, symBinAddr: 0x10000AF80, symSize: 0x28 }
  - { offsetInCU: 0x16068, offset: 0x16068, size: 0x8, addend: 0x0, symName: __ZNKSt3__116reverse_iteratorIP10LinkedListEdeB7v160006Ev, symObjAddr: 0x86E8, symBinAddr: 0x10000AFA8, symSize: 0x28 }
  - { offsetInCU: 0x1609B, offset: 0x1609B, size: 0x8, addend: 0x0, symName: __ZNSt3__116reverse_iteratorIP10LinkedListEppB7v160006Ev, symObjAddr: 0x8710, symBinAddr: 0x10000AFD0, symSize: 0x20 }
  - { offsetInCU: 0x160C0, offset: 0x160C0, size: 0x8, addend: 0x0, symName: __ZNSt3__18_IterOpsINS_17_ClassicAlgPolicyEE25__validate_iter_referenceB7v160006IRNS_16reverse_iteratorIP10LinkedListEEEEvv, symObjAddr: 0x8730, symBinAddr: 0x10000AFF0, symSize: 0x4 }
  - { offsetInCU: 0x160DE, offset: 0x160DE, size: 0x8, addend: 0x0, symName: __ZNSt3__118__unwrap_iter_implINS_16reverse_iteratorIP10LinkedListEELb0EE8__unwrapB7v160006ES4_, symObjAddr: 0x8734, symBinAddr: 0x10000AFF4, symSize: 0x24 }
  - { offsetInCU: 0x16106, offset: 0x16106, size: 0x8, addend: 0x0, symName: __ZNSt3__14pairINS_16reverse_iteratorIP10LinkedListEES4_EC1B7v160006IS4_S4_LPv0EEEOT_OT0_, symObjAddr: 0x8758, symBinAddr: 0x10000B018, symSize: 0x3C }
  - { offsetInCU: 0x16163, offset: 0x16163, size: 0x8, addend: 0x0, symName: __ZNSt3__14pairINS_16reverse_iteratorIP10LinkedListEES4_EC2B7v160006IS4_S4_LPv0EEEOT_OT0_, symObjAddr: 0x8794, symBinAddr: 0x10000B054, symSize: 0x34 }
  - { offsetInCU: 0x161C0, offset: 0x161C0, size: 0x8, addend: 0x0, symName: __ZNSt3__118__unwrap_iter_implINS_16reverse_iteratorIP10LinkedListEELb0EE8__rewrapB7v160006ES4_S4_, symObjAddr: 0x87C8, symBinAddr: 0x10000B088, symSize: 0x2C }
  - { offsetInCU: 0x161EE, offset: 0x161EE, size: 0x8, addend: 0x0, symName: __ZNSt3__116reverse_iteratorIP10LinkedListEC2B7v160006ES2_, symObjAddr: 0x87F4, symBinAddr: 0x10000B0B4, symSize: 0x28 }
  - { offsetInCU: 0x16225, offset: 0x16225, size: 0x8, addend: 0x0, symName: __ZNSt3__114__split_bufferI10LinkedListRNS_9allocatorIS1_EEED2Ev, symObjAddr: 0x881C, symBinAddr: 0x10000B0DC, symSize: 0x8C }
  - { offsetInCU: 0x16250, offset: 0x16250, size: 0x8, addend: 0x0, symName: __ZNSt3__114__split_bufferI10LinkedListRNS_9allocatorIS1_EEE5clearB7v160006Ev, symObjAddr: 0x88A8, symBinAddr: 0x10000B168, symSize: 0x28 }
  - { offsetInCU: 0x16275, offset: 0x16275, size: 0x8, addend: 0x0, symName: __ZNKSt3__114__split_bufferI10LinkedListRNS_9allocatorIS1_EEE8capacityB7v160006Ev, symObjAddr: 0x88D0, symBinAddr: 0x10000B190, symSize: 0x40 }
  - { offsetInCU: 0x1629A, offset: 0x1629A, size: 0x8, addend: 0x0, symName: __ZNSt3__114__split_bufferI10LinkedListRNS_9allocatorIS1_EEE17__destruct_at_endB7v160006EPS1_, symObjAddr: 0x8910, symBinAddr: 0x10000B1D0, symSize: 0x2C }
  - { offsetInCU: 0x162CC, offset: 0x162CC, size: 0x8, addend: 0x0, symName: __ZNSt3__114__split_bufferI10LinkedListRNS_9allocatorIS1_EEE17__destruct_at_endB7v160006EPS1_NS_17integral_constantIbLb0EEE, symObjAddr: 0x893C, symBinAddr: 0x10000B1FC, symSize: 0x80 }
  - { offsetInCU: 0x1630C, offset: 0x1630C, size: 0x8, addend: 0x0, symName: __ZNKSt3__114__split_bufferI10LinkedListRNS_9allocatorIS1_EEE9__end_capB7v160006Ev, symObjAddr: 0x89BC, symBinAddr: 0x10000B27C, symSize: 0x28 }
  - { offsetInCU: 0x16331, offset: 0x16331, size: 0x8, addend: 0x0, symName: __ZNKSt3__117__compressed_pairIP10LinkedListRNS_9allocatorIS1_EEE5firstB7v160006Ev, symObjAddr: 0x89E4, symBinAddr: 0x10000B2A4, symSize: 0x24 }
  - { offsetInCU: 0x16356, offset: 0x16356, size: 0x8, addend: 0x0, symName: __ZNSt3__16vectorI10LinkedListNS_9allocatorIS1_EEE27__invalidate_iterators_pastB7v160006EPS1_, symObjAddr: 0x8A08, symBinAddr: 0x10000B2C8, symSize: 0x14 }
  - { offsetInCU: 0x1638C, offset: 0x1638C, size: 0x8, addend: 0x0, symName: __ZNKSt3__16vectorI10LinkedListNS_9allocatorIS1_EEE17__annotate_shrinkB7v160006Em, symObjAddr: 0x8A1C, symBinAddr: 0x10000B2DC, symSize: 0xD0 }
  - { offsetInCU: 0x163C0, offset: 0x163C0, size: 0x8, addend: 0x0, symName: __ZNSt3__16vectorINS0_I10LinkedListNS_9allocatorIS1_EEEENS2_IS4_EEED2B7v160006Ev, symObjAddr: 0x8AEC, symBinAddr: 0x10000B3AC, symSize: 0x44 }
  - { offsetInCU: 0x163E9, offset: 0x163E9, size: 0x8, addend: 0x0, symName: __ZNSt3__16vectorINS0_I10LinkedListNS_9allocatorIS1_EEEENS2_IS4_EEE16__destroy_vectorC1ERS6_, symObjAddr: 0x8B30, symBinAddr: 0x10000B3F0, symSize: 0x34 }
  - { offsetInCU: 0x16421, offset: 0x16421, size: 0x8, addend: 0x0, symName: __ZNSt3__16vectorINS0_I10LinkedListNS_9allocatorIS1_EEEENS2_IS4_EEE16__destroy_vectorclB7v160006Ev, symObjAddr: 0x8B64, symBinAddr: 0x10000B424, symSize: 0x9C }
  - { offsetInCU: 0x16446, offset: 0x16446, size: 0x8, addend: 0x0, symName: __ZNSt3__16vectorINS0_I10LinkedListNS_9allocatorIS1_EEEENS2_IS4_EEE16__destroy_vectorC2ERS6_, symObjAddr: 0x8C00, symBinAddr: 0x10000B4C0, symSize: 0x20 }
  - { offsetInCU: 0x1647E, offset: 0x1647E, size: 0x8, addend: 0x0, symName: __ZNSt3__16vectorINS0_I10LinkedListNS_9allocatorIS1_EEEENS2_IS4_EEE7__clearB7v160006Ev, symObjAddr: 0x8C30, symBinAddr: 0x10000B4F0, symSize: 0x28 }
  - { offsetInCU: 0x164A3, offset: 0x164A3, size: 0x8, addend: 0x0, symName: __ZNSt3__16vectorIP4NodeNS_9allocatorIS2_EEED2B7v160006Ev, symObjAddr: 0x8C58, symBinAddr: 0x10000B518, symSize: 0x44 }
  - { offsetInCU: 0x164CC, offset: 0x164CC, size: 0x8, addend: 0x0, symName: __ZNSt3__16vectorIP4NodeNS_9allocatorIS2_EEE16__destroy_vectorC1ERS5_, symObjAddr: 0x8C9C, symBinAddr: 0x10000B55C, symSize: 0x34 }
  - { offsetInCU: 0x16504, offset: 0x16504, size: 0x8, addend: 0x0, symName: __ZNSt3__16vectorIP4NodeNS_9allocatorIS2_EEE16__destroy_vectorclB7v160006Ev, symObjAddr: 0x8CD0, symBinAddr: 0x10000B590, symSize: 0x9C }
  - { offsetInCU: 0x16529, offset: 0x16529, size: 0x8, addend: 0x0, symName: __ZNSt3__16vectorIP4NodeNS_9allocatorIS2_EEE16__destroy_vectorC2ERS5_, symObjAddr: 0x8D6C, symBinAddr: 0x10000B62C, symSize: 0x20 }
  - { offsetInCU: 0x16561, offset: 0x16561, size: 0x8, addend: 0x0, symName: __ZNSt3__16vectorIP4NodeNS_9allocatorIS2_EEE7__clearB7v160006Ev, symObjAddr: 0x8D9C, symBinAddr: 0x10000B65C, symSize: 0x28 }
  - { offsetInCU: 0x16585, offset: 0x16585, size: 0x8, addend: 0x0, symName: __ZNSt3__16vectorI10LinkedListNS_9allocatorIS1_EEE2atEm, symObjAddr: 0x8DC4, symBinAddr: 0x10000B684, symSize: 0x68 }
  - { offsetInCU: 0x165BA, offset: 0x165BA, size: 0x8, addend: 0x0, symName: __ZNSt3__16vectorIP4NodeNS_9allocatorIS2_EEE2atEm, symObjAddr: 0x8E2C, symBinAddr: 0x10000B6EC, symSize: 0x60 }
  - { offsetInCU: 0x165F0, offset: 0x165F0, size: 0x8, addend: 0x0, symName: __ZNKSt3__16vectorI10LinkedListNS_9allocatorIS1_EEE20__throw_out_of_rangeB7v160006Ev, symObjAddr: 0x8E8C, symBinAddr: 0x10000B74C, symSize: 0x1C }
  - { offsetInCU: 0x16615, offset: 0x16615, size: 0x8, addend: 0x0, symName: __ZNKSt3__16vectorIP4NodeNS_9allocatorIS2_EEE20__throw_out_of_rangeB7v160006Ev, symObjAddr: 0x8EA8, symBinAddr: 0x10000B768, symSize: 0x1C }
  - { offsetInCU: 0x1663A, offset: 0x1663A, size: 0x8, addend: 0x0, symName: __ZN9GridWorld10removeNodeEP4Node, symObjAddr: 0x8EC4, symBinAddr: 0x10000B784, symSize: 0x11C }
  - { offsetInCU: 0x1667A, offset: 0x1667A, size: 0x8, addend: 0x0, symName: __ZNKSt3__16vectorIP4NodeNS_9allocatorIS2_EEE2atEm, symObjAddr: 0x8FE0, symBinAddr: 0x10000B8A0, symSize: 0x60 }
  - { offsetInCU: 0x166B0, offset: 0x166B0, size: 0x8, addend: 0x0, symName: __ZN9GridWorldD2Ev, symObjAddr: 0x9040, symBinAddr: 0x10000B900, symSize: 0x10C }
  - { offsetInCU: 0x16715, offset: 0x16715, size: 0x8, addend: 0x0, symName: __ZNSt3__16vectorIP4NodeNS_9allocatorIS2_EEE5clearB7v160006Ev, symObjAddr: 0x914C, symBinAddr: 0x10000BA0C, symSize: 0x4C }
  - { offsetInCU: 0x16748, offset: 0x16748, size: 0x8, addend: 0x0, symName: __ZNKSt3__16vectorINS0_I10LinkedListNS_9allocatorIS1_EEEENS2_IS4_EEE2atEm, symObjAddr: 0x9198, symBinAddr: 0x10000BA58, symSize: 0x68 }
  - { offsetInCU: 0x1677D, offset: 0x1677D, size: 0x8, addend: 0x0, symName: __ZNKSt3__16vectorI10LinkedListNS_9allocatorIS1_EEE2atEm, symObjAddr: 0x9200, symBinAddr: 0x10000BAC0, symSize: 0x68 }
  - { offsetInCU: 0x167B3, offset: 0x167B3, size: 0x8, addend: 0x0, symName: __ZNSt3__16vectorIiNS_9allocatorIiEEEC2B7v160006Ev, symObjAddr: 0x9268, symBinAddr: 0x10000BB28, symSize: 0x58 }
  - { offsetInCU: 0x167DC, offset: 0x167DC, size: 0x8, addend: 0x0, symName: __ZNSt3__117__compressed_pairIPiNS_9allocatorIiEEEC1B7v160006IDnNS_18__default_init_tagEEEOT_OT0_, symObjAddr: 0x92C0, symBinAddr: 0x10000BB80, symSize: 0x3C }
  - { offsetInCU: 0x16833, offset: 0x16833, size: 0x8, addend: 0x0, symName: __ZNSt3__117__compressed_pairIPiNS_9allocatorIiEEEC2B7v160006IDnNS_18__default_init_tagEEEOT_OT0_, symObjAddr: 0x930C, symBinAddr: 0x10000BBCC, symSize: 0x40 }
  - { offsetInCU: 0x1688A, offset: 0x1688A, size: 0x8, addend: 0x0, symName: __ZNSt3__122__compressed_pair_elemIPiLi0ELb0EEC2B7v160006IDnvEEOT_, symObjAddr: 0x934C, symBinAddr: 0x10000BC0C, symSize: 0x1C }
  - { offsetInCU: 0x168CB, offset: 0x168CB, size: 0x8, addend: 0x0, symName: __ZNSt3__122__compressed_pair_elemINS_9allocatorIiEELi1ELb1EEC2B7v160006ENS_18__default_init_tagE, symObjAddr: 0x9368, symBinAddr: 0x10000BC28, symSize: 0x2C }
  - { offsetInCU: 0x168FF, offset: 0x168FF, size: 0x8, addend: 0x0, symName: __ZNSt3__19allocatorIiEC2B7v160006Ev, symObjAddr: 0x9394, symBinAddr: 0x10000BC54, symSize: 0x2C }
  - { offsetInCU: 0x16928, offset: 0x16928, size: 0x8, addend: 0x0, symName: __ZNSt3__116__non_trivial_ifILb1ENS_9allocatorIiEEEC2B7v160006Ev, symObjAddr: 0x93C0, symBinAddr: 0x10000BC80, symSize: 0x14 }
  - { offsetInCU: 0x16951, offset: 0x16951, size: 0x8, addend: 0x0, symName: __ZNSt3__16vectorIiNS_9allocatorIiEEE9__end_capB7v160006Ev, symObjAddr: 0x93D4, symBinAddr: 0x10000BC94, symSize: 0x28 }
  - { offsetInCU: 0x16976, offset: 0x16976, size: 0x8, addend: 0x0, symName: __ZNSt3__16vectorIiNS_9allocatorIiEEE22__construct_one_at_endB7v160006IJRKiEEEvDpOT_, symObjAddr: 0x93FC, symBinAddr: 0x10000BCBC, symSize: 0x90 }
  - { offsetInCU: 0x169C3, offset: 0x169C3, size: 0x8, addend: 0x0, symName: __ZNSt3__16vectorIiNS_9allocatorIiEEE21__push_back_slow_pathIRKiEEvOT_, symObjAddr: 0x948C, symBinAddr: 0x10000BD4C, symSize: 0xD8 }
  - { offsetInCU: 0x16A20, offset: 0x16A20, size: 0x8, addend: 0x0, symName: __ZNSt3__117__compressed_pairIPiNS_9allocatorIiEEE5firstB7v160006Ev, symObjAddr: 0x9564, symBinAddr: 0x10000BE24, symSize: 0x24 }
  - { offsetInCU: 0x16A45, offset: 0x16A45, size: 0x8, addend: 0x0, symName: __ZNSt3__122__compressed_pair_elemIPiLi0ELb0EE5__getB7v160006Ev, symObjAddr: 0x9588, symBinAddr: 0x10000BE48, symSize: 0x14 }
  - { offsetInCU: 0x16A83, offset: 0x16A83, size: 0x8, addend: 0x0, symName: __ZNSt3__16vectorIiNS_9allocatorIiEEE21_ConstructTransactionC1B7v160006ERS3_m, symObjAddr: 0x959C, symBinAddr: 0x10000BE5C, symSize: 0x3C }
  - { offsetInCU: 0x16ACA, offset: 0x16ACA, size: 0x8, addend: 0x0, symName: __ZNSt3__116allocator_traitsINS_9allocatorIiEEE9constructB7v160006IiJRKiEvEEvRS2_PT_DpOT0_, symObjAddr: 0x95D8, symBinAddr: 0x10000BE98, symSize: 0x34 }
  - { offsetInCU: 0x16B21, offset: 0x16B21, size: 0x8, addend: 0x0, symName: __ZNSt3__16vectorIiNS_9allocatorIiEEE7__allocB7v160006Ev, symObjAddr: 0x960C, symBinAddr: 0x10000BECC, symSize: 0x28 }
  - { offsetInCU: 0x16B46, offset: 0x16B46, size: 0x8, addend: 0x0, symName: __ZNSt3__16vectorIiNS_9allocatorIiEEE21_ConstructTransactionD1B7v160006Ev, symObjAddr: 0x9648, symBinAddr: 0x10000BF08, symSize: 0x2C }
  - { offsetInCU: 0x16B6F, offset: 0x16B6F, size: 0x8, addend: 0x0, symName: __ZNSt3__16vectorIiNS_9allocatorIiEEE21_ConstructTransactionC2B7v160006ERS3_m, symObjAddr: 0x9674, symBinAddr: 0x10000BF34, symSize: 0x44 }
  - { offsetInCU: 0x16BB6, offset: 0x16BB6, size: 0x8, addend: 0x0, symName: __ZNSt3__19allocatorIiE9constructB7v160006IiJRKiEEEvPT_DpOT0_, symObjAddr: 0x96B8, symBinAddr: 0x10000BF78, symSize: 0x28 }
  - { offsetInCU: 0x16C0B, offset: 0x16C0B, size: 0x8, addend: 0x0, symName: __ZNSt3__117__compressed_pairIPiNS_9allocatorIiEEE6secondB7v160006Ev, symObjAddr: 0x96E0, symBinAddr: 0x10000BFA0, symSize: 0x24 }
  - { offsetInCU: 0x16C30, offset: 0x16C30, size: 0x8, addend: 0x0, symName: __ZNSt3__122__compressed_pair_elemINS_9allocatorIiEELi1ELb1EE5__getB7v160006Ev, symObjAddr: 0x9704, symBinAddr: 0x10000BFC4, symSize: 0x14 }
  - { offsetInCU: 0x16C55, offset: 0x16C55, size: 0x8, addend: 0x0, symName: __ZNSt3__16vectorIiNS_9allocatorIiEEE21_ConstructTransactionD2B7v160006Ev, symObjAddr: 0x9718, symBinAddr: 0x10000BFD8, symSize: 0x20 }
  - { offsetInCU: 0x16C7D, offset: 0x16C7D, size: 0x8, addend: 0x0, symName: __ZNKSt3__16vectorIiNS_9allocatorIiEEE11__recommendB7v160006Em, symObjAddr: 0x9738, symBinAddr: 0x10000BFF8, symSize: 0xB4 }
  - { offsetInCU: 0x16CD1, offset: 0x16CD1, size: 0x8, addend: 0x0, symName: __ZNSt3__114__split_bufferIiRNS_9allocatorIiEEEC1EmmS3_, symObjAddr: 0x97EC, symBinAddr: 0x10000C0AC, symSize: 0x44 }
  - { offsetInCU: 0x16D26, offset: 0x16D26, size: 0x8, addend: 0x0, symName: __ZNSt3__114__split_bufferIiRNS_9allocatorIiEEED1Ev, symObjAddr: 0x9948, symBinAddr: 0x10000C208, symSize: 0x2C }
  - { offsetInCU: 0x16D50, offset: 0x16D50, size: 0x8, addend: 0x0, symName: __ZNKSt3__16vectorIiNS_9allocatorIiEEE8max_sizeEv, symObjAddr: 0x9974, symBinAddr: 0x10000C234, symSize: 0x60 }
  - { offsetInCU: 0x16D77, offset: 0x16D77, size: 0x8, addend: 0x0, symName: __ZNKSt3__16vectorIiNS_9allocatorIiEEE20__throw_length_errorB7v160006Ev, symObjAddr: 0x99D4, symBinAddr: 0x10000C294, symSize: 0x1C }
  - { offsetInCU: 0x16D9C, offset: 0x16D9C, size: 0x8, addend: 0x0, symName: __ZNKSt3__16vectorIiNS_9allocatorIiEEE8capacityB7v160006Ev, symObjAddr: 0x99F0, symBinAddr: 0x10000C2B0, symSize: 0x40 }
  - { offsetInCU: 0x16DCB, offset: 0x16DCB, size: 0x8, addend: 0x0, symName: __ZNSt3__116allocator_traitsINS_9allocatorIiEEE8max_sizeB7v160006IS2_vEEmRKS2_, symObjAddr: 0x9A30, symBinAddr: 0x10000C2F0, symSize: 0x24 }
  - { offsetInCU: 0x16DF9, offset: 0x16DF9, size: 0x8, addend: 0x0, symName: __ZNKSt3__16vectorIiNS_9allocatorIiEEE7__allocB7v160006Ev, symObjAddr: 0x9A54, symBinAddr: 0x10000C314, symSize: 0x28 }
  - { offsetInCU: 0x16E1E, offset: 0x16E1E, size: 0x8, addend: 0x0, symName: __ZNKSt3__19allocatorIiE8max_sizeB7v160006Ev, symObjAddr: 0x9A7C, symBinAddr: 0x10000C33C, symSize: 0x14 }
  - { offsetInCU: 0x16E43, offset: 0x16E43, size: 0x8, addend: 0x0, symName: __ZNKSt3__117__compressed_pairIPiNS_9allocatorIiEEE6secondB7v160006Ev, symObjAddr: 0x9A90, symBinAddr: 0x10000C350, symSize: 0x24 }
  - { offsetInCU: 0x16E68, offset: 0x16E68, size: 0x8, addend: 0x0, symName: __ZNKSt3__122__compressed_pair_elemINS_9allocatorIiEELi1ELb1EE5__getB7v160006Ev, symObjAddr: 0x9AB4, symBinAddr: 0x10000C374, symSize: 0x14 }
  - { offsetInCU: 0x16E8D, offset: 0x16E8D, size: 0x8, addend: 0x0, symName: __ZNKSt3__16vectorIiNS_9allocatorIiEEE9__end_capB7v160006Ev, symObjAddr: 0x9AC8, symBinAddr: 0x10000C388, symSize: 0x28 }
  - { offsetInCU: 0x16EB2, offset: 0x16EB2, size: 0x8, addend: 0x0, symName: __ZNKSt3__117__compressed_pairIPiNS_9allocatorIiEEE5firstB7v160006Ev, symObjAddr: 0x9AF0, symBinAddr: 0x10000C3B0, symSize: 0x24 }
  - { offsetInCU: 0x16ED7, offset: 0x16ED7, size: 0x8, addend: 0x0, symName: __ZNKSt3__122__compressed_pair_elemIPiLi0ELb0EE5__getB7v160006Ev, symObjAddr: 0x9B14, symBinAddr: 0x10000C3D4, symSize: 0x14 }
  - { offsetInCU: 0x16EFC, offset: 0x16EFC, size: 0x8, addend: 0x0, symName: __ZNSt3__114__split_bufferIiRNS_9allocatorIiEEEC2EmmS3_, symObjAddr: 0x9B28, symBinAddr: 0x10000C3E8, symSize: 0xD4 }
  - { offsetInCU: 0x16F6F, offset: 0x16F6F, size: 0x8, addend: 0x0, symName: __ZNSt3__117__compressed_pairIPiRNS_9allocatorIiEEEC1B7v160006IDnS4_EEOT_OT0_, symObjAddr: 0x9BFC, symBinAddr: 0x10000C4BC, symSize: 0x3C }
  - { offsetInCU: 0x16FC6, offset: 0x16FC6, size: 0x8, addend: 0x0, symName: __ZNSt3__114__split_bufferIiRNS_9allocatorIiEEE7__allocB7v160006Ev, symObjAddr: 0x9C78, symBinAddr: 0x10000C538, symSize: 0x28 }
  - { offsetInCU: 0x16FEB, offset: 0x16FEB, size: 0x8, addend: 0x0, symName: __ZNSt3__114__split_bufferIiRNS_9allocatorIiEEE9__end_capB7v160006Ev, symObjAddr: 0x9CA0, symBinAddr: 0x10000C560, symSize: 0x28 }
  - { offsetInCU: 0x17010, offset: 0x17010, size: 0x8, addend: 0x0, symName: __ZNSt3__117__compressed_pairIPiRNS_9allocatorIiEEEC2B7v160006IDnS4_EEOT_OT0_, symObjAddr: 0x9CC8, symBinAddr: 0x10000C588, symSize: 0x48 }
  - { offsetInCU: 0x17067, offset: 0x17067, size: 0x8, addend: 0x0, symName: __ZNSt3__122__compressed_pair_elemIRNS_9allocatorIiEELi1ELb0EEC2B7v160006IS3_vEEOT_, symObjAddr: 0x9D10, symBinAddr: 0x10000C5D0, symSize: 0x20 }
  - { offsetInCU: 0x170A8, offset: 0x170A8, size: 0x8, addend: 0x0, symName: __ZNSt3__19allocatorIiE8allocateB7v160006Em, symObjAddr: 0x9D30, symBinAddr: 0x10000C5F0, symSize: 0x58 }
  - { offsetInCU: 0x170DB, offset: 0x170DB, size: 0x8, addend: 0x0, symName: __ZNSt3__117__compressed_pairIPiRNS_9allocatorIiEEE6secondB7v160006Ev, symObjAddr: 0x9D88, symBinAddr: 0x10000C648, symSize: 0x28 }
  - { offsetInCU: 0x17100, offset: 0x17100, size: 0x8, addend: 0x0, symName: __ZNSt3__122__compressed_pair_elemIRNS_9allocatorIiEELi1ELb0EE5__getB7v160006Ev, symObjAddr: 0x9DB0, symBinAddr: 0x10000C670, symSize: 0x18 }
  - { offsetInCU: 0x17125, offset: 0x17125, size: 0x8, addend: 0x0, symName: __ZNSt3__117__compressed_pairIPiRNS_9allocatorIiEEE5firstB7v160006Ev, symObjAddr: 0x9DC8, symBinAddr: 0x10000C688, symSize: 0x24 }
  - { offsetInCU: 0x1714A, offset: 0x1714A, size: 0x8, addend: 0x0, symName: __ZNKSt3__16vectorIiNS_9allocatorIiEEE17__annotate_deleteB7v160006Ev, symObjAddr: 0x9DEC, symBinAddr: 0x10000C6AC, symSize: 0xB8 }
  - { offsetInCU: 0x1716F, offset: 0x1716F, size: 0x8, addend: 0x0, symName: __ZNSt3__116reverse_iteratorIPiEC1B7v160006ES1_, symObjAddr: 0x9F1C, symBinAddr: 0x10000C7DC, symSize: 0x34 }
  - { offsetInCU: 0x171A6, offset: 0x171A6, size: 0x8, addend: 0x0, symName: __ZNKSt3__116reverse_iteratorIPiE4baseB7v160006Ev, symObjAddr: 0x9F50, symBinAddr: 0x10000C810, symSize: 0x18 }
  - { offsetInCU: 0x171CB, offset: 0x171CB, size: 0x8, addend: 0x0, symName: __ZNKSt3__16vectorIiNS_9allocatorIiEEE14__annotate_newB7v160006Em, symObjAddr: 0x9FA4, symBinAddr: 0x10000C864, symSize: 0xAC }
  - { offsetInCU: 0x171FF, offset: 0x171FF, size: 0x8, addend: 0x0, symName: __ZNKSt3__16vectorIiNS_9allocatorIiEEE31__annotate_contiguous_containerB7v160006EPKvS5_S5_S5_, symObjAddr: 0xA060, symBinAddr: 0x10000C920, symSize: 0x20 }
  - { offsetInCU: 0x17250, offset: 0x17250, size: 0x8, addend: 0x0, symName: __ZNKSt3__16vectorIiNS_9allocatorIiEEE4dataB7v160006Ev, symObjAddr: 0xA080, symBinAddr: 0x10000C940, symSize: 0x28 }
  - { offsetInCU: 0x1728E, offset: 0x1728E, size: 0x8, addend: 0x0, symName: __ZNKSt3__111__move_loopINS_17_ClassicAlgPolicyEEclB7v160006INS_16reverse_iteratorIPiEES6_S6_EENS_4pairIT_T1_EES8_T0_S9_, symObjAddr: 0xA398, symBinAddr: 0x10000CC58, symSize: 0xA0 }
  - { offsetInCU: 0x172FD, offset: 0x172FD, size: 0x8, addend: 0x0, symName: __ZNSt3__18_IterOpsINS_17_ClassicAlgPolicyEE11__iter_moveB7v160006IRNS_16reverse_iteratorIPiEEEENS_9enable_ifIXsr12is_referenceIDTdeclsr3stdE7declvalIRT_EEEEE5valueEDTclsr3stdE4movedeclsr3stdE7declvalISA_EEEEE4typeEOS9_, symObjAddr: 0xA5CC, symBinAddr: 0x10000CE8C, symSize: 0x28 }
  - { offsetInCU: 0x17329, offset: 0x17329, size: 0x8, addend: 0x0, symName: __ZNKSt3__116reverse_iteratorIPiEdeB7v160006Ev, symObjAddr: 0xA5F4, symBinAddr: 0x10000CEB4, symSize: 0x28 }
  - { offsetInCU: 0x1735C, offset: 0x1735C, size: 0x8, addend: 0x0, symName: __ZNSt3__116reverse_iteratorIPiEppB7v160006Ev, symObjAddr: 0xA61C, symBinAddr: 0x10000CEDC, symSize: 0x20 }
  - { offsetInCU: 0x17381, offset: 0x17381, size: 0x8, addend: 0x0, symName: __ZNSt3__18_IterOpsINS_17_ClassicAlgPolicyEE25__validate_iter_referenceB7v160006IRNS_16reverse_iteratorIPiEEEEvv, symObjAddr: 0xA63C, symBinAddr: 0x10000CEFC, symSize: 0x4 }
  - { offsetInCU: 0x1739F, offset: 0x1739F, size: 0x8, addend: 0x0, symName: __ZNSt3__118__unwrap_iter_implINS_16reverse_iteratorIPiEELb0EE8__unwrapB7v160006ES3_, symObjAddr: 0xA640, symBinAddr: 0x10000CF00, symSize: 0x24 }
  - { offsetInCU: 0x173C7, offset: 0x173C7, size: 0x8, addend: 0x0, symName: __ZNSt3__14pairINS_16reverse_iteratorIPiEES3_EC1B7v160006IS3_S3_LPv0EEEOT_OT0_, symObjAddr: 0xA664, symBinAddr: 0x10000CF24, symSize: 0x3C }
  - { offsetInCU: 0x17424, offset: 0x17424, size: 0x8, addend: 0x0, symName: __ZNSt3__14pairINS_16reverse_iteratorIPiEES3_EC2B7v160006IS3_S3_LPv0EEEOT_OT0_, symObjAddr: 0xA6A0, symBinAddr: 0x10000CF60, symSize: 0x34 }
  - { offsetInCU: 0x17481, offset: 0x17481, size: 0x8, addend: 0x0, symName: __ZNSt3__118__unwrap_iter_implINS_16reverse_iteratorIPiEELb0EE8__rewrapB7v160006ES3_S3_, symObjAddr: 0xA6D4, symBinAddr: 0x10000CF94, symSize: 0x2C }
  - { offsetInCU: 0x174AF, offset: 0x174AF, size: 0x8, addend: 0x0, symName: __ZNSt3__116reverse_iteratorIPiEC2B7v160006ES1_, symObjAddr: 0xA700, symBinAddr: 0x10000CFC0, symSize: 0x28 }
  - { offsetInCU: 0x174E6, offset: 0x174E6, size: 0x8, addend: 0x0, symName: __ZNSt3__114__split_bufferIiRNS_9allocatorIiEEED2Ev, symObjAddr: 0xA728, symBinAddr: 0x10000CFE8, symSize: 0x8C }
  - { offsetInCU: 0x17511, offset: 0x17511, size: 0x8, addend: 0x0, symName: __ZNSt3__114__split_bufferIiRNS_9allocatorIiEEE5clearB7v160006Ev, symObjAddr: 0xA7B4, symBinAddr: 0x10000D074, symSize: 0x28 }
  - { offsetInCU: 0x17536, offset: 0x17536, size: 0x8, addend: 0x0, symName: __ZNSt3__116allocator_traitsINS_9allocatorIiEEE10deallocateB7v160006ERS2_Pim, symObjAddr: 0xA7DC, symBinAddr: 0x10000D09C, symSize: 0x34 }
  - { offsetInCU: 0x17578, offset: 0x17578, size: 0x8, addend: 0x0, symName: __ZNKSt3__114__split_bufferIiRNS_9allocatorIiEEE8capacityB7v160006Ev, symObjAddr: 0xA810, symBinAddr: 0x10000D0D0, symSize: 0x40 }
  - { offsetInCU: 0x1759D, offset: 0x1759D, size: 0x8, addend: 0x0, symName: __ZNSt3__114__split_bufferIiRNS_9allocatorIiEEE17__destruct_at_endB7v160006EPi, symObjAddr: 0xA850, symBinAddr: 0x10000D110, symSize: 0x2C }
  - { offsetInCU: 0x175CF, offset: 0x175CF, size: 0x8, addend: 0x0, symName: __ZNSt3__114__split_bufferIiRNS_9allocatorIiEEE17__destruct_at_endB7v160006EPiNS_17integral_constantIbLb0EEE, symObjAddr: 0xA87C, symBinAddr: 0x10000D13C, symSize: 0x80 }
  - { offsetInCU: 0x1760F, offset: 0x1760F, size: 0x8, addend: 0x0, symName: __ZNSt3__116allocator_traitsINS_9allocatorIiEEE7destroyB7v160006IivEEvRS2_PT_, symObjAddr: 0xA8FC, symBinAddr: 0x10000D1BC, symSize: 0x2C }
  - { offsetInCU: 0x1764C, offset: 0x1764C, size: 0x8, addend: 0x0, symName: __ZNSt3__19allocatorIiE7destroyB7v160006EPi, symObjAddr: 0xA928, symBinAddr: 0x10000D1E8, symSize: 0x14 }
  - { offsetInCU: 0x1767F, offset: 0x1767F, size: 0x8, addend: 0x0, symName: __ZNSt3__19allocatorIiE10deallocateB7v160006EPim, symObjAddr: 0xA93C, symBinAddr: 0x10000D1FC, symSize: 0x40 }
  - { offsetInCU: 0x176C0, offset: 0x176C0, size: 0x8, addend: 0x0, symName: __ZNKSt3__114__split_bufferIiRNS_9allocatorIiEEE9__end_capB7v160006Ev, symObjAddr: 0xA97C, symBinAddr: 0x10000D23C, symSize: 0x28 }
  - { offsetInCU: 0x176E5, offset: 0x176E5, size: 0x8, addend: 0x0, symName: __ZNKSt3__117__compressed_pairIPiRNS_9allocatorIiEEE5firstB7v160006Ev, symObjAddr: 0xA9A4, symBinAddr: 0x10000D264, symSize: 0x24 }
  - { offsetInCU: 0x1770A, offset: 0x1770A, size: 0x8, addend: 0x0, symName: __ZNSt3__112basic_stringIcNS_11char_traitsIcEENS_9allocatorIcEEEC2B7v160006Ev, symObjAddr: 0xA9C8, symBinAddr: 0x10000D288, symSize: 0x54 }
  - { offsetInCU: 0x17733, offset: 0x17733, size: 0x8, addend: 0x0, symName: __ZNSt3__117__compressed_pairINS_12basic_stringIcNS_11char_traitsIcEENS_9allocatorIcEEE5__repES5_EC1B7v160006INS_18__default_init_tagESA_EEOT_OT0_, symObjAddr: 0xAA1C, symBinAddr: 0x10000D2DC, symSize: 0x3C }
  - { offsetInCU: 0x1778A, offset: 0x1778A, size: 0x8, addend: 0x0, symName: __ZNSt3__112basic_stringIcNS_11char_traitsIcEENS_9allocatorIcEEE14__default_initB7v160006Ev, symObjAddr: 0xAA68, symBinAddr: 0x10000D328, symSize: 0x40 }
  - { offsetInCU: 0x177AF, offset: 0x177AF, size: 0x8, addend: 0x0, symName: __ZNSt3__117__compressed_pairINS_12basic_stringIcNS_11char_traitsIcEENS_9allocatorIcEEE5__repES5_EC2B7v160006INS_18__default_init_tagESA_EEOT_OT0_, symObjAddr: 0xAAA8, symBinAddr: 0x10000D368, symSize: 0x3C }
  - { offsetInCU: 0x17806, offset: 0x17806, size: 0x8, addend: 0x0, symName: __ZNSt3__122__compressed_pair_elemINS_12basic_stringIcNS_11char_traitsIcEENS_9allocatorIcEEE5__repELi0ELb0EEC2B7v160006ENS_18__default_init_tagE, symObjAddr: 0xAAE4, symBinAddr: 0x10000D3A4, symSize: 0x14 }
  - { offsetInCU: 0x1783A, offset: 0x1783A, size: 0x8, addend: 0x0, symName: __ZNSt3__122__compressed_pair_elemINS_9allocatorIcEELi1ELb1EEC2B7v160006ENS_18__default_init_tagE, symObjAddr: 0xAAF8, symBinAddr: 0x10000D3B8, symSize: 0x2C }
  - { offsetInCU: 0x1786E, offset: 0x1786E, size: 0x8, addend: 0x0, symName: __ZNSt3__19allocatorIcEC2B7v160006Ev, symObjAddr: 0xAB24, symBinAddr: 0x10000D3E4, symSize: 0x2C }
  - { offsetInCU: 0x17897, offset: 0x17897, size: 0x8, addend: 0x0, symName: __ZNSt3__116__non_trivial_ifILb1ENS_9allocatorIcEEEC2B7v160006Ev, symObjAddr: 0xAB50, symBinAddr: 0x10000D410, symSize: 0x14 }
  - { offsetInCU: 0x178C0, offset: 0x178C0, size: 0x8, addend: 0x0, symName: __ZNSt3__117__compressed_pairINS_12basic_stringIcNS_11char_traitsIcEENS_9allocatorIcEEE5__repES5_E5firstB7v160006Ev, symObjAddr: 0xAB64, symBinAddr: 0x10000D424, symSize: 0x24 }
  - { offsetInCU: 0x178E5, offset: 0x178E5, size: 0x8, addend: 0x0, symName: __ZNSt3__122__compressed_pair_elemINS_12basic_stringIcNS_11char_traitsIcEENS_9allocatorIcEEE5__repELi0ELb0EE5__getB7v160006Ev, symObjAddr: 0xAB88, symBinAddr: 0x10000D448, symSize: 0x14 }
  - { offsetInCU: 0x1790A, offset: 0x1790A, size: 0x8, addend: 0x0, symName: __ZNSt3__111char_traitsIcE6lengthEPKc, symObjAddr: 0xAD88, symBinAddr: 0x10000D648, symSize: 0x34 }
  - { offsetInCU: 0x1794B, offset: 0x1794B, size: 0x8, addend: 0x0, symName: __ZNKSt3__113basic_ostreamIcNS_11char_traitsIcEEE6sentrycvbB7v160006Ev, symObjAddr: 0xADBC, symBinAddr: 0x10000D67C, symSize: 0x1C }
  - { offsetInCU: 0x17970, offset: 0x17970, size: 0x8, addend: 0x0, symName: __ZNSt3__119ostreambuf_iteratorIcNS_11char_traitsIcEEEC1B7v160006ERNS_13basic_ostreamIcS2_EE, symObjAddr: 0xB018, symBinAddr: 0x10000D8D8, symSize: 0x34 }
  - { offsetInCU: 0x179A7, offset: 0x179A7, size: 0x8, addend: 0x0, symName: __ZNKSt3__18ios_base5flagsB7v160006Ev, symObjAddr: 0xB04C, symBinAddr: 0x10000D90C, symSize: 0x18 }
  - { offsetInCU: 0x179CD, offset: 0x179CD, size: 0x8, addend: 0x0, symName: __ZNKSt3__19basic_iosIcNS_11char_traitsIcEEE4fillB7v160006Ev, symObjAddr: 0xB064, symBinAddr: 0x10000D924, symSize: 0x64 }
  - { offsetInCU: 0x179F4, offset: 0x179F4, size: 0x8, addend: 0x0, symName: __ZNKSt3__119ostreambuf_iteratorIcNS_11char_traitsIcEEE6failedB7v160006Ev, symObjAddr: 0xB0C8, symBinAddr: 0x10000D988, symSize: 0x24 }
  - { offsetInCU: 0x17A19, offset: 0x17A19, size: 0x8, addend: 0x0, symName: __ZNSt3__19basic_iosIcNS_11char_traitsIcEEE8setstateB7v160006Ej, symObjAddr: 0xB0EC, symBinAddr: 0x10000D9AC, symSize: 0x2C }
  - { offsetInCU: 0x17A4D, offset: 0x17A4D, size: 0x8, addend: 0x0, symName: __ZNKSt3__18ios_base5widthB7v160006Ev, symObjAddr: 0xB118, symBinAddr: 0x10000D9D8, symSize: 0x18 }
  - { offsetInCU: 0x17A74, offset: 0x17A74, size: 0x8, addend: 0x0, symName: __ZNSt3__115basic_streambufIcNS_11char_traitsIcEEE5sputnB7v160006EPKcl, symObjAddr: 0xB130, symBinAddr: 0x10000D9F0, symSize: 0x3C }
  - { offsetInCU: 0x17AB5, offset: 0x17AB5, size: 0x8, addend: 0x0, symName: __ZNSt3__112basic_stringIcNS_11char_traitsIcEENS_9allocatorIcEEEC1B7v160006Emc, symObjAddr: 0xB16C, symBinAddr: 0x10000DA2C, symSize: 0x3C }
  - { offsetInCU: 0x17AFC, offset: 0x17AFC, size: 0x8, addend: 0x0, symName: __ZNKSt3__112basic_stringIcNS_11char_traitsIcEENS_9allocatorIcEEE4dataB7v160006Ev, symObjAddr: 0xB1A8, symBinAddr: 0x10000DA68, symSize: 0x28 }
  - { offsetInCU: 0x17B21, offset: 0x17B21, size: 0x8, addend: 0x0, symName: __ZNSt3__18ios_base5widthB7v160006El, symObjAddr: 0xB1D0, symBinAddr: 0x10000DA90, symSize: 0x2C }
  - { offsetInCU: 0x17B66, offset: 0x17B66, size: 0x8, addend: 0x0, symName: __ZNSt3__112basic_stringIcNS_11char_traitsIcEENS_9allocatorIcEEEC2B7v160006Emc, symObjAddr: 0xB1FC, symBinAddr: 0x10000DABC, symSize: 0x54 }
  - { offsetInCU: 0x17BAD, offset: 0x17BAD, size: 0x8, addend: 0x0, symName: __ZNKSt3__112basic_stringIcNS_11char_traitsIcEENS_9allocatorIcEEE13__get_pointerB7v160006Ev, symObjAddr: 0xB264, symBinAddr: 0x10000DB24, symSize: 0x54 }
  - { offsetInCU: 0x17BD2, offset: 0x17BD2, size: 0x8, addend: 0x0, symName: __ZNKSt3__112basic_stringIcNS_11char_traitsIcEENS_9allocatorIcEEE9__is_longB7v160006Ev, symObjAddr: 0xB2B8, symBinAddr: 0x10000DB78, symSize: 0x38 }
  - { offsetInCU: 0x17BF7, offset: 0x17BF7, size: 0x8, addend: 0x0, symName: __ZNKSt3__112basic_stringIcNS_11char_traitsIcEENS_9allocatorIcEEE18__get_long_pointerB7v160006Ev, symObjAddr: 0xB2F0, symBinAddr: 0x10000DBB0, symSize: 0x28 }
  - { offsetInCU: 0x17C1C, offset: 0x17C1C, size: 0x8, addend: 0x0, symName: __ZNKSt3__112basic_stringIcNS_11char_traitsIcEENS_9allocatorIcEEE19__get_short_pointerB7v160006Ev, symObjAddr: 0xB318, symBinAddr: 0x10000DBD8, symSize: 0x28 }
  - { offsetInCU: 0x17C41, offset: 0x17C41, size: 0x8, addend: 0x0, symName: __ZNKSt3__117__compressed_pairINS_12basic_stringIcNS_11char_traitsIcEENS_9allocatorIcEEE5__repES5_E5firstB7v160006Ev, symObjAddr: 0xB340, symBinAddr: 0x10000DC00, symSize: 0x24 }
  - { offsetInCU: 0x17C66, offset: 0x17C66, size: 0x8, addend: 0x0, symName: __ZNKSt3__122__compressed_pair_elemINS_12basic_stringIcNS_11char_traitsIcEENS_9allocatorIcEEE5__repELi0ELb0EE5__getB7v160006Ev, symObjAddr: 0xB364, symBinAddr: 0x10000DC24, symSize: 0x14 }
  - { offsetInCU: 0x17C8B, offset: 0x17C8B, size: 0x8, addend: 0x0, symName: __ZNSt3__114pointer_traitsIPKcE10pointer_toB7v160006ERS1_, symObjAddr: 0xB378, symBinAddr: 0x10000DC38, symSize: 0x14 }
  - { offsetInCU: 0x17CAE, offset: 0x17CAE, size: 0x8, addend: 0x0, symName: __ZNSt3__119ostreambuf_iteratorIcNS_11char_traitsIcEEEC2B7v160006ERNS_13basic_ostreamIcS2_EE, symObjAddr: 0xB38C, symBinAddr: 0x10000DC4C, symSize: 0x54 }
  - { offsetInCU: 0x17CE4, offset: 0x17CE4, size: 0x8, addend: 0x0, symName: __ZNKSt3__19basic_iosIcNS_11char_traitsIcEEE5rdbufB7v160006Ev, symObjAddr: 0xB3E0, symBinAddr: 0x10000DCA0, symSize: 0x24 }
  - { offsetInCU: 0x17D0B, offset: 0x17D0B, size: 0x8, addend: 0x0, symName: __ZNKSt3__18ios_base5rdbufB7v160006Ev, symObjAddr: 0xB404, symBinAddr: 0x10000DCC4, symSize: 0x18 }
  - { offsetInCU: 0x17D30, offset: 0x17D30, size: 0x8, addend: 0x0, symName: __ZNSt3__111char_traitsIcE11eq_int_typeEii, symObjAddr: 0xB41C, symBinAddr: 0x10000DCDC, symSize: 0x28 }
  - { offsetInCU: 0x17D61, offset: 0x17D61, size: 0x8, addend: 0x0, symName: __ZNSt3__111char_traitsIcE3eofEv, symObjAddr: 0xB444, symBinAddr: 0x10000DD04, symSize: 0x8 }
  - { offsetInCU: 0x17D74, offset: 0x17D74, size: 0x8, addend: 0x0, symName: __ZNKSt3__19basic_iosIcNS_11char_traitsIcEEE5widenB7v160006Ec, symObjAddr: 0xB44C, symBinAddr: 0x10000DD0C, symSize: 0x84 }
  - { offsetInCU: 0x17DE1, offset: 0x17DE1, size: 0x8, addend: 0x0, symName: __ZNKSt3__15ctypeIcE5widenB7v160006Ec, symObjAddr: 0xB4FC, symBinAddr: 0x10000DDBC, symSize: 0x38 }
  - { offsetInCU: 0x17E14, offset: 0x17E14, size: 0x8, addend: 0x0, symName: __ZNSt3__18ios_base8setstateB7v160006Ej, symObjAddr: 0xB534, symBinAddr: 0x10000DDF4, symSize: 0x34 }
  - { offsetInCU: 0x17E4A, offset: 0x17E4A, size: 0x8, addend: 0x0, symName: __ZNKSt3__112basic_stringIcNS_11char_traitsIcEENS_9allocatorIcEEE4sizeB7v160006Ev, symObjAddr: 0xB58C, symBinAddr: 0x10000DE4C, symSize: 0x54 }
  - { offsetInCU: 0x17E6F, offset: 0x17E6F, size: 0x8, addend: 0x0, symName: __ZNKSt3__112basic_stringIcNS_11char_traitsIcEENS_9allocatorIcEEE15__get_long_sizeB7v160006Ev, symObjAddr: 0xB5E0, symBinAddr: 0x10000DEA0, symSize: 0x28 }
  - { offsetInCU: 0x17E94, offset: 0x17E94, size: 0x8, addend: 0x0, symName: __ZNKSt3__112basic_stringIcNS_11char_traitsIcEENS_9allocatorIcEEE16__get_short_sizeB7v160006Ev, symObjAddr: 0xB608, symBinAddr: 0x10000DEC8, symSize: 0x34 }
  - { offsetInCU: 0x17EB9, offset: 0x17EB9, size: 0x8, addend: 0x0, symName: __ZNSt3__16vectorIiNS_9allocatorIiEEED2B7v160006Ev, symObjAddr: 0xB63C, symBinAddr: 0x10000DEFC, symSize: 0x44 }
  - { offsetInCU: 0x17EE2, offset: 0x17EE2, size: 0x8, addend: 0x0, symName: __ZNSt3__16vectorIiNS_9allocatorIiEEE16__destroy_vectorC1ERS3_, symObjAddr: 0xB680, symBinAddr: 0x10000DF40, symSize: 0x34 }
  - { offsetInCU: 0x17F1A, offset: 0x17F1A, size: 0x8, addend: 0x0, symName: __ZNSt3__16vectorIiNS_9allocatorIiEEE16__destroy_vectorclB7v160006Ev, symObjAddr: 0xB6B4, symBinAddr: 0x10000DF74, symSize: 0x9C }
  - { offsetInCU: 0x17F3F, offset: 0x17F3F, size: 0x8, addend: 0x0, symName: __ZNSt3__16vectorIiNS_9allocatorIiEEE16__destroy_vectorC2ERS3_, symObjAddr: 0xB750, symBinAddr: 0x10000E010, symSize: 0x20 }
  - { offsetInCU: 0x17F77, offset: 0x17F77, size: 0x8, addend: 0x0, symName: __ZNSt3__16vectorIiNS_9allocatorIiEEE7__clearB7v160006Ev, symObjAddr: 0xB780, symBinAddr: 0x10000E040, symSize: 0x28 }
  - { offsetInCU: 0x17F9C, offset: 0x17F9C, size: 0x8, addend: 0x0, symName: __ZNSt3__16vectorIiNS_9allocatorIiEEE22__base_destruct_at_endB7v160006EPi, symObjAddr: 0xB7A8, symBinAddr: 0x10000E068, symSize: 0x8C }
  - { offsetInCU: 0x17FDE, offset: 0x17FDE, size: 0x8, addend: 0x0, symName: __ZNKSt3__16vectorIiNS_9allocatorIiEEE5beginB7v160006Ev, symObjAddr: 0xB920, symBinAddr: 0x10000E1E0, symSize: 0x30 }
  - { offsetInCU: 0x18004, offset: 0x18004, size: 0x8, addend: 0x0, symName: __ZNKSt3__16vectorIiNS_9allocatorIiEEE3endB7v160006Ev, symObjAddr: 0xB950, symBinAddr: 0x10000E210, symSize: 0x30 }
  - { offsetInCU: 0x18035, offset: 0x18035, size: 0x8, addend: 0x0, symName: __ZNKSt3__110__equal_toclB7v160006IiiEEbRKT_RKT0_, symObjAddr: 0xBA64, symBinAddr: 0x10000E324, symSize: 0x34 }
  - { offsetInCU: 0x18088, offset: 0x18088, size: 0x8, addend: 0x0, symName: __ZNKSt3__111__wrap_iterIPKiEdeB7v160006Ev, symObjAddr: 0xBA98, symBinAddr: 0x10000E358, symSize: 0x18 }
  - { offsetInCU: 0x180AD, offset: 0x180AD, size: 0x8, addend: 0x0, symName: __ZNSt3__111__wrap_iterIPKiEppB7v160006Ev, symObjAddr: 0xBAB0, symBinAddr: 0x10000E370, symSize: 0x20 }
  - { offsetInCU: 0x180D2, offset: 0x180D2, size: 0x8, addend: 0x0, symName: __ZNKSt3__111__wrap_iterIPKiE4baseB7v160006Ev, symObjAddr: 0xBB18, symBinAddr: 0x10000E3D8, symSize: 0x18 }
  - { offsetInCU: 0x180F7, offset: 0x180F7, size: 0x8, addend: 0x0, symName: __ZNKSt3__16vectorIiNS_9allocatorIiEEE11__make_iterB7v160006EPKi, symObjAddr: 0xBB30, symBinAddr: 0x10000E3F0, symSize: 0x34 }
  - { offsetInCU: 0x1812B, offset: 0x1812B, size: 0x8, addend: 0x0, symName: __ZNSt3__111__wrap_iterIPKiEC1B7v160006EPKvS2_, symObjAddr: 0xBB64, symBinAddr: 0x10000E424, symSize: 0x3C }
  - { offsetInCU: 0x18170, offset: 0x18170, size: 0x8, addend: 0x0, symName: __ZNSt3__111__wrap_iterIPKiEC2B7v160006EPKvS2_, symObjAddr: 0xBBA0, symBinAddr: 0x10000E460, symSize: 0x24 }
  - { offsetInCU: 0x181B5, offset: 0x181B5, size: 0x8, addend: 0x0, symName: __ZNSt3__16chrono10time_pointINS0_12steady_clockENS0_8durationIxNS_5ratioILl1ELl1000000000EEEEEEC2B7v160006Ev, symObjAddr: 0xBBC4, symBinAddr: 0x10000E484, symSize: 0x34 }
  - { offsetInCU: 0x181DE, offset: 0x181DE, size: 0x8, addend: 0x0, symName: __ZNSt3__16chrono8durationIxNS_5ratioILl1ELl1000000000EEEE4zeroB7v160006Ev, symObjAddr: 0xBBF8, symBinAddr: 0x10000E4B8, symSize: 0x3C }
  - { offsetInCU: 0x181F2, offset: 0x181F2, size: 0x8, addend: 0x0, symName: __ZNSt3__16chrono15duration_valuesIxE4zeroB7v160006Ev, symObjAddr: 0xBC34, symBinAddr: 0x10000E4F4, symSize: 0x8 }
  - { offsetInCU: 0x18215, offset: 0x18215, size: 0x8, addend: 0x0, symName: __ZNSt3__16chrono8durationIxNS_5ratioILl1ELl1000000000EEEEC1B7v160006IxEERKT_PNS_9enable_ifIXaasr14is_convertibleIS8_xEE5valueooL_ZNS_17integral_constantIbLb0EE5valueEEntsr23treat_as_floating_pointIS6_EE5valueEvE4typeE, symObjAddr: 0xBC3C, symBinAddr: 0x10000E4FC, symSize: 0x3C }
  - { offsetInCU: 0x18260, offset: 0x18260, size: 0x8, addend: 0x0, symName: __ZNSt3__16chrono8durationIxNS_5ratioILl1ELl1000000000EEEEC2B7v160006IxEERKT_PNS_9enable_ifIXaasr14is_convertibleIS8_xEE5valueooL_ZNS_17integral_constantIbLb0EE5valueEEntsr23treat_as_floating_pointIS6_EE5valueEvE4typeE, symObjAddr: 0xBC78, symBinAddr: 0x10000E538, symSize: 0x28 }
  - { offsetInCU: 0x182AB, offset: 0x182AB, size: 0x8, addend: 0x0, symName: __ZNKSt3__16chrono10time_pointINS0_12steady_clockENS0_8durationIxNS_5ratioILl1ELl1000000000EEEEEE16time_since_epochB7v160006Ev, symObjAddr: 0xBD10, symBinAddr: 0x10000E5D0, symSize: 0x20 }
...
